
ctarget:     file format elf64-x86-64


Disassembly of section .init:

0000000000400c48 <_init>:
  400c48:	48 83 ec 08          	sub    $0x8,%rsp
  400c4c:	48 8b 05 a5 33 20 00 	mov    0x2033a5(%rip),%rax        # 603ff8 <__gmon_start__>
  400c53:	48 85 c0             	test   %rax,%rax
  400c56:	74 02                	je     400c5a <_init+0x12>
  400c58:	ff d0                	callq  *%rax
  400c5a:	48 83 c4 08          	add    $0x8,%rsp
  400c5e:	c3                   	retq   

Disassembly of section .plt:

0000000000400c60 <.plt>:
  400c60:	ff 35 a2 33 20 00    	pushq  0x2033a2(%rip)        # 604008 <_GLOBAL_OFFSET_TABLE_+0x8>
  400c66:	ff 25 a4 33 20 00    	jmpq   *0x2033a4(%rip)        # 604010 <_GLOBAL_OFFSET_TABLE_+0x10>
  400c6c:	0f 1f 40 00          	nopl   0x0(%rax)

0000000000400c70 <strcasecmp@plt>:
  400c70:	ff 25 a2 33 20 00    	jmpq   *0x2033a2(%rip)        # 604018 <strcasecmp@GLIBC_2.2.5>
  400c76:	68 00 00 00 00       	pushq  $0x0
  400c7b:	e9 e0 ff ff ff       	jmpq   400c60 <.plt>

0000000000400c80 <__errno_location@plt>:
  400c80:	ff 25 9a 33 20 00    	jmpq   *0x20339a(%rip)        # 604020 <__errno_location@GLIBC_2.2.5>
  400c86:	68 01 00 00 00       	pushq  $0x1
  400c8b:	e9 d0 ff ff ff       	jmpq   400c60 <.plt>

0000000000400c90 <srandom@plt>:
  400c90:	ff 25 92 33 20 00    	jmpq   *0x203392(%rip)        # 604028 <srandom@GLIBC_2.2.5>
  400c96:	68 02 00 00 00       	pushq  $0x2
  400c9b:	e9 c0 ff ff ff       	jmpq   400c60 <.plt>

0000000000400ca0 <strncmp@plt>:
  400ca0:	ff 25 8a 33 20 00    	jmpq   *0x20338a(%rip)        # 604030 <strncmp@GLIBC_2.2.5>
  400ca6:	68 03 00 00 00       	pushq  $0x3
  400cab:	e9 b0 ff ff ff       	jmpq   400c60 <.plt>

0000000000400cb0 <strcpy@plt>:
  400cb0:	ff 25 82 33 20 00    	jmpq   *0x203382(%rip)        # 604038 <strcpy@GLIBC_2.2.5>
  400cb6:	68 04 00 00 00       	pushq  $0x4
  400cbb:	e9 a0 ff ff ff       	jmpq   400c60 <.plt>

0000000000400cc0 <puts@plt>:
  400cc0:	ff 25 7a 33 20 00    	jmpq   *0x20337a(%rip)        # 604040 <puts@GLIBC_2.2.5>
  400cc6:	68 05 00 00 00       	pushq  $0x5
  400ccb:	e9 90 ff ff ff       	jmpq   400c60 <.plt>

0000000000400cd0 <write@plt>:
  400cd0:	ff 25 72 33 20 00    	jmpq   *0x203372(%rip)        # 604048 <write@GLIBC_2.2.5>
  400cd6:	68 06 00 00 00       	pushq  $0x6
  400cdb:	e9 80 ff ff ff       	jmpq   400c60 <.plt>

0000000000400ce0 <__stack_chk_fail@plt>:
  400ce0:	ff 25 6a 33 20 00    	jmpq   *0x20336a(%rip)        # 604050 <__stack_chk_fail@GLIBC_2.4>
  400ce6:	68 07 00 00 00       	pushq  $0x7
  400ceb:	e9 70 ff ff ff       	jmpq   400c60 <.plt>

0000000000400cf0 <mmap@plt>:
  400cf0:	ff 25 62 33 20 00    	jmpq   *0x203362(%rip)        # 604058 <mmap@GLIBC_2.2.5>
  400cf6:	68 08 00 00 00       	pushq  $0x8
  400cfb:	e9 60 ff ff ff       	jmpq   400c60 <.plt>

0000000000400d00 <memset@plt>:
  400d00:	ff 25 5a 33 20 00    	jmpq   *0x20335a(%rip)        # 604060 <memset@GLIBC_2.2.5>
  400d06:	68 09 00 00 00       	pushq  $0x9
  400d0b:	e9 50 ff ff ff       	jmpq   400c60 <.plt>

0000000000400d10 <alarm@plt>:
  400d10:	ff 25 52 33 20 00    	jmpq   *0x203352(%rip)        # 604068 <alarm@GLIBC_2.2.5>
  400d16:	68 0a 00 00 00       	pushq  $0xa
  400d1b:	e9 40 ff ff ff       	jmpq   400c60 <.plt>

0000000000400d20 <close@plt>:
  400d20:	ff 25 4a 33 20 00    	jmpq   *0x20334a(%rip)        # 604070 <close@GLIBC_2.2.5>
  400d26:	68 0b 00 00 00       	pushq  $0xb
  400d2b:	e9 30 ff ff ff       	jmpq   400c60 <.plt>

0000000000400d30 <read@plt>:
  400d30:	ff 25 42 33 20 00    	jmpq   *0x203342(%rip)        # 604078 <read@GLIBC_2.2.5>
  400d36:	68 0c 00 00 00       	pushq  $0xc
  400d3b:	e9 20 ff ff ff       	jmpq   400c60 <.plt>

0000000000400d40 <signal@plt>:
  400d40:	ff 25 3a 33 20 00    	jmpq   *0x20333a(%rip)        # 604080 <signal@GLIBC_2.2.5>
  400d46:	68 0d 00 00 00       	pushq  $0xd
  400d4b:	e9 10 ff ff ff       	jmpq   400c60 <.plt>

0000000000400d50 <gethostbyname@plt>:
  400d50:	ff 25 32 33 20 00    	jmpq   *0x203332(%rip)        # 604088 <gethostbyname@GLIBC_2.2.5>
  400d56:	68 0e 00 00 00       	pushq  $0xe
  400d5b:	e9 00 ff ff ff       	jmpq   400c60 <.plt>

0000000000400d60 <__memmove_chk@plt>:
  400d60:	ff 25 2a 33 20 00    	jmpq   *0x20332a(%rip)        # 604090 <__memmove_chk@GLIBC_2.3.4>
  400d66:	68 0f 00 00 00       	pushq  $0xf
  400d6b:	e9 f0 fe ff ff       	jmpq   400c60 <.plt>

0000000000400d70 <strtol@plt>:
  400d70:	ff 25 22 33 20 00    	jmpq   *0x203322(%rip)        # 604098 <strtol@GLIBC_2.2.5>
  400d76:	68 10 00 00 00       	pushq  $0x10
  400d7b:	e9 e0 fe ff ff       	jmpq   400c60 <.plt>

0000000000400d80 <memcpy@plt>:
  400d80:	ff 25 1a 33 20 00    	jmpq   *0x20331a(%rip)        # 6040a0 <memcpy@GLIBC_2.14>
  400d86:	68 11 00 00 00       	pushq  $0x11
  400d8b:	e9 d0 fe ff ff       	jmpq   400c60 <.plt>

0000000000400d90 <time@plt>:
  400d90:	ff 25 12 33 20 00    	jmpq   *0x203312(%rip)        # 6040a8 <time@GLIBC_2.2.5>
  400d96:	68 12 00 00 00       	pushq  $0x12
  400d9b:	e9 c0 fe ff ff       	jmpq   400c60 <.plt>

0000000000400da0 <random@plt>:
  400da0:	ff 25 0a 33 20 00    	jmpq   *0x20330a(%rip)        # 6040b0 <random@GLIBC_2.2.5>
  400da6:	68 13 00 00 00       	pushq  $0x13
  400dab:	e9 b0 fe ff ff       	jmpq   400c60 <.plt>

0000000000400db0 <_IO_getc@plt>:
  400db0:	ff 25 02 33 20 00    	jmpq   *0x203302(%rip)        # 6040b8 <_IO_getc@GLIBC_2.2.5>
  400db6:	68 14 00 00 00       	pushq  $0x14
  400dbb:	e9 a0 fe ff ff       	jmpq   400c60 <.plt>

0000000000400dc0 <__isoc99_sscanf@plt>:
  400dc0:	ff 25 fa 32 20 00    	jmpq   *0x2032fa(%rip)        # 6040c0 <__isoc99_sscanf@GLIBC_2.7>
  400dc6:	68 15 00 00 00       	pushq  $0x15
  400dcb:	e9 90 fe ff ff       	jmpq   400c60 <.plt>

0000000000400dd0 <munmap@plt>:
  400dd0:	ff 25 f2 32 20 00    	jmpq   *0x2032f2(%rip)        # 6040c8 <munmap@GLIBC_2.2.5>
  400dd6:	68 16 00 00 00       	pushq  $0x16
  400ddb:	e9 80 fe ff ff       	jmpq   400c60 <.plt>

0000000000400de0 <__printf_chk@plt>:
  400de0:	ff 25 ea 32 20 00    	jmpq   *0x2032ea(%rip)        # 6040d0 <__printf_chk@GLIBC_2.3.4>
  400de6:	68 17 00 00 00       	pushq  $0x17
  400deb:	e9 70 fe ff ff       	jmpq   400c60 <.plt>

0000000000400df0 <fopen@plt>:
  400df0:	ff 25 e2 32 20 00    	jmpq   *0x2032e2(%rip)        # 6040d8 <fopen@GLIBC_2.2.5>
  400df6:	68 18 00 00 00       	pushq  $0x18
  400dfb:	e9 60 fe ff ff       	jmpq   400c60 <.plt>

0000000000400e00 <getopt@plt>:
  400e00:	ff 25 da 32 20 00    	jmpq   *0x2032da(%rip)        # 6040e0 <getopt@GLIBC_2.2.5>
  400e06:	68 19 00 00 00       	pushq  $0x19
  400e0b:	e9 50 fe ff ff       	jmpq   400c60 <.plt>

0000000000400e10 <strtoul@plt>:
  400e10:	ff 25 d2 32 20 00    	jmpq   *0x2032d2(%rip)        # 6040e8 <strtoul@GLIBC_2.2.5>
  400e16:	68 1a 00 00 00       	pushq  $0x1a
  400e1b:	e9 40 fe ff ff       	jmpq   400c60 <.plt>

0000000000400e20 <gethostname@plt>:
  400e20:	ff 25 ca 32 20 00    	jmpq   *0x2032ca(%rip)        # 6040f0 <gethostname@GLIBC_2.2.5>
  400e26:	68 1b 00 00 00       	pushq  $0x1b
  400e2b:	e9 30 fe ff ff       	jmpq   400c60 <.plt>

0000000000400e30 <exit@plt>:
  400e30:	ff 25 c2 32 20 00    	jmpq   *0x2032c2(%rip)        # 6040f8 <exit@GLIBC_2.2.5>
  400e36:	68 1c 00 00 00       	pushq  $0x1c
  400e3b:	e9 20 fe ff ff       	jmpq   400c60 <.plt>

0000000000400e40 <connect@plt>:
  400e40:	ff 25 ba 32 20 00    	jmpq   *0x2032ba(%rip)        # 604100 <connect@GLIBC_2.2.5>
  400e46:	68 1d 00 00 00       	pushq  $0x1d
  400e4b:	e9 10 fe ff ff       	jmpq   400c60 <.plt>

0000000000400e50 <__fprintf_chk@plt>:
  400e50:	ff 25 b2 32 20 00    	jmpq   *0x2032b2(%rip)        # 604108 <__fprintf_chk@GLIBC_2.3.4>
  400e56:	68 1e 00 00 00       	pushq  $0x1e
  400e5b:	e9 00 fe ff ff       	jmpq   400c60 <.plt>

0000000000400e60 <__sprintf_chk@plt>:
  400e60:	ff 25 aa 32 20 00    	jmpq   *0x2032aa(%rip)        # 604110 <__sprintf_chk@GLIBC_2.3.4>
  400e66:	68 1f 00 00 00       	pushq  $0x1f
  400e6b:	e9 f0 fd ff ff       	jmpq   400c60 <.plt>

0000000000400e70 <socket@plt>:
  400e70:	ff 25 a2 32 20 00    	jmpq   *0x2032a2(%rip)        # 604118 <socket@GLIBC_2.2.5>
  400e76:	68 20 00 00 00       	pushq  $0x20
  400e7b:	e9 e0 fd ff ff       	jmpq   400c60 <.plt>

Disassembly of section .text:

0000000000400e80 <_start>:
  400e80:	31 ed                	xor    %ebp,%ebp
  400e82:	49 89 d1             	mov    %rdx,%r9
  400e85:	5e                   	pop    %rsi
  400e86:	48 89 e2             	mov    %rsp,%rdx
  400e89:	48 83 e4 f0          	and    $0xfffffffffffffff0,%rsp
  400e8d:	50                   	push   %rax
  400e8e:	54                   	push   %rsp
  400e8f:	49 c7 c0 30 2e 40 00 	mov    $0x402e30,%r8
  400e96:	48 c7 c1 c0 2d 40 00 	mov    $0x402dc0,%rcx
  400e9d:	48 c7 c7 8e 11 40 00 	mov    $0x40118e,%rdi
  400ea4:	ff 15 46 31 20 00    	callq  *0x203146(%rip)        # 603ff0 <__libc_start_main@GLIBC_2.2.5>
  400eaa:	f4                   	hlt    
  400eab:	0f 1f 44 00 00       	nopl   0x0(%rax,%rax,1)

0000000000400eb0 <_dl_relocate_static_pie>:
  400eb0:	f3 c3                	repz retq 
  400eb2:	66 2e 0f 1f 84 00 00 	nopw   %cs:0x0(%rax,%rax,1)
  400eb9:	00 00 00 
  400ebc:	0f 1f 40 00          	nopl   0x0(%rax)

0000000000400ec0 <deregister_tm_clones>:
  400ec0:	55                   	push   %rbp
  400ec1:	b8 88 44 60 00       	mov    $0x604488,%eax
  400ec6:	48 3d 88 44 60 00    	cmp    $0x604488,%rax
  400ecc:	48 89 e5             	mov    %rsp,%rbp
  400ecf:	74 17                	je     400ee8 <deregister_tm_clones+0x28>
  400ed1:	b8 00 00 00 00       	mov    $0x0,%eax
  400ed6:	48 85 c0             	test   %rax,%rax
  400ed9:	74 0d                	je     400ee8 <deregister_tm_clones+0x28>
  400edb:	5d                   	pop    %rbp
  400edc:	bf 88 44 60 00       	mov    $0x604488,%edi
  400ee1:	ff e0                	jmpq   *%rax
  400ee3:	0f 1f 44 00 00       	nopl   0x0(%rax,%rax,1)
  400ee8:	5d                   	pop    %rbp
  400ee9:	c3                   	retq   
  400eea:	66 0f 1f 44 00 00    	nopw   0x0(%rax,%rax,1)

0000000000400ef0 <register_tm_clones>:
  400ef0:	be 88 44 60 00       	mov    $0x604488,%esi
  400ef5:	55                   	push   %rbp
  400ef6:	48 81 ee 88 44 60 00 	sub    $0x604488,%rsi
  400efd:	48 89 e5             	mov    %rsp,%rbp
  400f00:	48 c1 fe 03          	sar    $0x3,%rsi
  400f04:	48 89 f0             	mov    %rsi,%rax
  400f07:	48 c1 e8 3f          	shr    $0x3f,%rax
  400f0b:	48 01 c6             	add    %rax,%rsi
  400f0e:	48 d1 fe             	sar    %rsi
  400f11:	74 15                	je     400f28 <register_tm_clones+0x38>
  400f13:	b8 00 00 00 00       	mov    $0x0,%eax
  400f18:	48 85 c0             	test   %rax,%rax
  400f1b:	74 0b                	je     400f28 <register_tm_clones+0x38>
  400f1d:	5d                   	pop    %rbp
  400f1e:	bf 88 44 60 00       	mov    $0x604488,%edi
  400f23:	ff e0                	jmpq   *%rax
  400f25:	0f 1f 00             	nopl   (%rax)
  400f28:	5d                   	pop    %rbp
  400f29:	c3                   	retq   
  400f2a:	66 0f 1f 44 00 00    	nopw   0x0(%rax,%rax,1)

0000000000400f30 <__do_global_dtors_aux>:
  400f30:	80 3d 91 35 20 00 00 	cmpb   $0x0,0x203591(%rip)        # 6044c8 <completed.7698>
  400f37:	75 17                	jne    400f50 <__do_global_dtors_aux+0x20>
  400f39:	55                   	push   %rbp
  400f3a:	48 89 e5             	mov    %rsp,%rbp
  400f3d:	e8 7e ff ff ff       	callq  400ec0 <deregister_tm_clones>
  400f42:	c6 05 7f 35 20 00 01 	movb   $0x1,0x20357f(%rip)        # 6044c8 <completed.7698>
  400f49:	5d                   	pop    %rbp
  400f4a:	c3                   	retq   
  400f4b:	0f 1f 44 00 00       	nopl   0x0(%rax,%rax,1)
  400f50:	f3 c3                	repz retq 
  400f52:	0f 1f 40 00          	nopl   0x0(%rax)
  400f56:	66 2e 0f 1f 84 00 00 	nopw   %cs:0x0(%rax,%rax,1)
  400f5d:	00 00 00 

0000000000400f60 <frame_dummy>:
  400f60:	55                   	push   %rbp
  400f61:	48 89 e5             	mov    %rsp,%rbp
  400f64:	5d                   	pop    %rbp
  400f65:	eb 89                	jmp    400ef0 <register_tm_clones>

0000000000400f67 <usage>:
  400f67:	48 83 ec 08          	sub    $0x8,%rsp
  400f6b:	48 89 fa             	mov    %rdi,%rdx
  400f6e:	83 3d 97 35 20 00 00 	cmpl   $0x0,0x203597(%rip)        # 60450c <is_checker>
  400f75:	74 50                	je     400fc7 <usage+0x60>
  400f77:	48 8d 35 ca 1e 00 00 	lea    0x1eca(%rip),%rsi        # 402e48 <_IO_stdin_used+0x8>
  400f7e:	bf 01 00 00 00       	mov    $0x1,%edi
  400f83:	b8 00 00 00 00       	mov    $0x0,%eax
  400f88:	e8 53 fe ff ff       	callq  400de0 <__printf_chk@plt>
  400f8d:	48 8d 3d ec 1e 00 00 	lea    0x1eec(%rip),%rdi        # 402e80 <_IO_stdin_used+0x40>
  400f94:	e8 27 fd ff ff       	callq  400cc0 <puts@plt>
  400f99:	48 8d 3d 22 20 00 00 	lea    0x2022(%rip),%rdi        # 402fc2 <_IO_stdin_used+0x182>
  400fa0:	e8 1b fd ff ff       	callq  400cc0 <puts@plt>
  400fa5:	48 8d 3d fc 1e 00 00 	lea    0x1efc(%rip),%rdi        # 402ea8 <_IO_stdin_used+0x68>
  400fac:	e8 0f fd ff ff       	callq  400cc0 <puts@plt>
  400fb1:	48 8d 3d 24 20 00 00 	lea    0x2024(%rip),%rdi        # 402fdc <_IO_stdin_used+0x19c>
  400fb8:	e8 03 fd ff ff       	callq  400cc0 <puts@plt>
  400fbd:	bf 00 00 00 00       	mov    $0x0,%edi
  400fc2:	e8 69 fe ff ff       	callq  400e30 <exit@plt>
  400fc7:	48 8d 35 2a 20 00 00 	lea    0x202a(%rip),%rsi        # 402ff8 <_IO_stdin_used+0x1b8>
  400fce:	bf 01 00 00 00       	mov    $0x1,%edi
  400fd3:	b8 00 00 00 00       	mov    $0x0,%eax
  400fd8:	e8 03 fe ff ff       	callq  400de0 <__printf_chk@plt>
  400fdd:	48 8d 3d ec 1e 00 00 	lea    0x1eec(%rip),%rdi        # 402ed0 <_IO_stdin_used+0x90>
  400fe4:	e8 d7 fc ff ff       	callq  400cc0 <puts@plt>
  400fe9:	48 8d 3d 08 1f 00 00 	lea    0x1f08(%rip),%rdi        # 402ef8 <_IO_stdin_used+0xb8>
  400ff0:	e8 cb fc ff ff       	callq  400cc0 <puts@plt>
  400ff5:	48 8d 3d 1a 20 00 00 	lea    0x201a(%rip),%rdi        # 403016 <_IO_stdin_used+0x1d6>
  400ffc:	e8 bf fc ff ff       	callq  400cc0 <puts@plt>
  401001:	eb ba                	jmp    400fbd <usage+0x56>

0000000000401003 <initialize_target>:
  401003:	55                   	push   %rbp
  401004:	53                   	push   %rbx
  401005:	48 81 ec 18 21 00 00 	sub    $0x2118,%rsp
  40100c:	89 f5                	mov    %esi,%ebp
  40100e:	64 48 8b 04 25 28 00 	mov    %fs:0x28,%rax
  401015:	00 00 
  401017:	48 89 84 24 08 21 00 	mov    %rax,0x2108(%rsp)
  40101e:	00 
  40101f:	31 c0                	xor    %eax,%eax
  401021:	89 3d d5 34 20 00    	mov    %edi,0x2034d5(%rip)        # 6044fc <check_level>
  401027:	8b 3d 03 31 20 00    	mov    0x203103(%rip),%edi        # 604130 <target_id>
  40102d:	e8 61 1d 00 00       	callq  402d93 <gencookie>
  401032:	89 05 d0 34 20 00    	mov    %eax,0x2034d0(%rip)        # 604508 <cookie>
  401038:	89 c7                	mov    %eax,%edi
  40103a:	e8 54 1d 00 00       	callq  402d93 <gencookie>
  40103f:	89 05 bf 34 20 00    	mov    %eax,0x2034bf(%rip)        # 604504 <authkey>
  401045:	8b 05 e5 30 20 00    	mov    0x2030e5(%rip),%eax        # 604130 <target_id>
  40104b:	8d 78 01             	lea    0x1(%rax),%edi
  40104e:	e8 3d fc ff ff       	callq  400c90 <srandom@plt>
  401053:	e8 48 fd ff ff       	callq  400da0 <random@plt>
  401058:	89 c7                	mov    %eax,%edi
  40105a:	e8 de 02 00 00       	callq  40133d <scramble>
  40105f:	89 c3                	mov    %eax,%ebx
  401061:	85 ed                	test   %ebp,%ebp
  401063:	75 54                	jne    4010b9 <initialize_target+0xb6>
  401065:	b8 00 00 00 00       	mov    $0x0,%eax
  40106a:	01 d8                	add    %ebx,%eax
  40106c:	0f b7 c0             	movzwl %ax,%eax
  40106f:	8d 04 c5 00 01 00 00 	lea    0x100(,%rax,8),%eax
  401076:	89 c0                	mov    %eax,%eax
  401078:	48 89 05 01 34 20 00 	mov    %rax,0x203401(%rip)        # 604480 <buf_offset>
  40107f:	c6 05 a2 40 20 00 63 	movb   $0x63,0x2040a2(%rip)        # 605128 <target_prefix>
  401086:	83 3d 6b 34 20 00 00 	cmpl   $0x0,0x20346b(%rip)        # 6044f8 <notify>
  40108d:	74 09                	je     401098 <initialize_target+0x95>
  40108f:	83 3d 76 34 20 00 00 	cmpl   $0x0,0x203476(%rip)        # 60450c <is_checker>
  401096:	74 39                	je     4010d1 <initialize_target+0xce>
  401098:	48 8b 84 24 08 21 00 	mov    0x2108(%rsp),%rax
  40109f:	00 
  4010a0:	64 48 33 04 25 28 00 	xor    %fs:0x28,%rax
  4010a7:	00 00 
  4010a9:	0f 85 da 00 00 00    	jne    401189 <initialize_target+0x186>
  4010af:	48 81 c4 18 21 00 00 	add    $0x2118,%rsp
  4010b6:	5b                   	pop    %rbx
  4010b7:	5d                   	pop    %rbp
  4010b8:	c3                   	retq   
  4010b9:	bf 00 00 00 00       	mov    $0x0,%edi
  4010be:	e8 cd fc ff ff       	callq  400d90 <time@plt>
  4010c3:	89 c7                	mov    %eax,%edi
  4010c5:	e8 c6 fb ff ff       	callq  400c90 <srandom@plt>
  4010ca:	e8 d1 fc ff ff       	callq  400da0 <random@plt>
  4010cf:	eb 99                	jmp    40106a <initialize_target+0x67>
  4010d1:	48 89 e7             	mov    %rsp,%rdi
  4010d4:	be 00 01 00 00       	mov    $0x100,%esi
  4010d9:	e8 42 fd ff ff       	callq  400e20 <gethostname@plt>
  4010de:	89 c5                	mov    %eax,%ebp
  4010e0:	85 c0                	test   %eax,%eax
  4010e2:	75 26                	jne    40110a <initialize_target+0x107>
  4010e4:	89 c3                	mov    %eax,%ebx
  4010e6:	48 63 c3             	movslq %ebx,%rax
  4010e9:	48 8d 15 70 30 20 00 	lea    0x203070(%rip),%rdx        # 604160 <host_table>
  4010f0:	48 8b 3c c2          	mov    (%rdx,%rax,8),%rdi
  4010f4:	48 85 ff             	test   %rdi,%rdi
  4010f7:	74 2c                	je     401125 <initialize_target+0x122>
  4010f9:	48 89 e6             	mov    %rsp,%rsi
  4010fc:	e8 6f fb ff ff       	callq  400c70 <strcasecmp@plt>
  401101:	85 c0                	test   %eax,%eax
  401103:	74 1b                	je     401120 <initialize_target+0x11d>
  401105:	83 c3 01             	add    $0x1,%ebx
  401108:	eb dc                	jmp    4010e6 <initialize_target+0xe3>
  40110a:	48 8d 3d 17 1e 00 00 	lea    0x1e17(%rip),%rdi        # 402f28 <_IO_stdin_used+0xe8>
  401111:	e8 aa fb ff ff       	callq  400cc0 <puts@plt>
  401116:	bf 08 00 00 00       	mov    $0x8,%edi
  40111b:	e8 10 fd ff ff       	callq  400e30 <exit@plt>
  401120:	bd 01 00 00 00       	mov    $0x1,%ebp
  401125:	85 ed                	test   %ebp,%ebp
  401127:	74 3d                	je     401166 <initialize_target+0x163>
  401129:	48 8d bc 24 00 01 00 	lea    0x100(%rsp),%rdi
  401130:	00 
  401131:	e8 8d 19 00 00       	callq  402ac3 <init_driver>
  401136:	85 c0                	test   %eax,%eax
  401138:	0f 89 5a ff ff ff    	jns    401098 <initialize_target+0x95>
  40113e:	48 8d 94 24 00 01 00 	lea    0x100(%rsp),%rdx
  401145:	00 
  401146:	48 8d 35 53 1e 00 00 	lea    0x1e53(%rip),%rsi        # 402fa0 <_IO_stdin_used+0x160>
  40114d:	bf 01 00 00 00       	mov    $0x1,%edi
  401152:	b8 00 00 00 00       	mov    $0x0,%eax
  401157:	e8 84 fc ff ff       	callq  400de0 <__printf_chk@plt>
  40115c:	bf 08 00 00 00       	mov    $0x8,%edi
  401161:	e8 ca fc ff ff       	callq  400e30 <exit@plt>
  401166:	48 89 e2             	mov    %rsp,%rdx
  401169:	48 8d 35 f0 1d 00 00 	lea    0x1df0(%rip),%rsi        # 402f60 <_IO_stdin_used+0x120>
  401170:	bf 01 00 00 00       	mov    $0x1,%edi
  401175:	b8 00 00 00 00       	mov    $0x0,%eax
  40117a:	e8 61 fc ff ff       	callq  400de0 <__printf_chk@plt>
  40117f:	bf 08 00 00 00       	mov    $0x8,%edi
  401184:	e8 a7 fc ff ff       	callq  400e30 <exit@plt>
  401189:	e8 52 fb ff ff       	callq  400ce0 <__stack_chk_fail@plt>

000000000040118e <main>:
  40118e:	41 55                	push   %r13
  401190:	41 54                	push   %r12
  401192:	55                   	push   %rbp
  401193:	53                   	push   %rbx
  401194:	48 83 ec 08          	sub    $0x8,%rsp
  401198:	41 89 fc             	mov    %edi,%r12d
  40119b:	48 89 f3             	mov    %rsi,%rbx
  40119e:	48 c7 c6 ca 1d 40 00 	mov    $0x401dca,%rsi
  4011a5:	bf 0b 00 00 00       	mov    $0xb,%edi
  4011aa:	e8 91 fb ff ff       	callq  400d40 <signal@plt>
  4011af:	48 c7 c6 76 1d 40 00 	mov    $0x401d76,%rsi
  4011b6:	bf 07 00 00 00       	mov    $0x7,%edi
  4011bb:	e8 80 fb ff ff       	callq  400d40 <signal@plt>
  4011c0:	48 c7 c6 1e 1e 40 00 	mov    $0x401e1e,%rsi
  4011c7:	bf 04 00 00 00       	mov    $0x4,%edi
  4011cc:	e8 6f fb ff ff       	callq  400d40 <signal@plt>
  4011d1:	83 3d 34 33 20 00 00 	cmpl   $0x0,0x203334(%rip)        # 60450c <is_checker>
  4011d8:	75 20                	jne    4011fa <main+0x6c>
  4011da:	48 8d 2d 4e 1e 00 00 	lea    0x1e4e(%rip),%rbp        # 40302f <_IO_stdin_used+0x1ef>
  4011e1:	48 8b 05 b8 32 20 00 	mov    0x2032b8(%rip),%rax        # 6044a0 <stdin@@GLIBC_2.2.5>
  4011e8:	48 89 05 01 33 20 00 	mov    %rax,0x203301(%rip)        # 6044f0 <infile>
  4011ef:	41 bd 00 00 00 00    	mov    $0x0,%r13d
  4011f5:	e9 8a 00 00 00       	jmpq   401284 <main+0xf6>
  4011fa:	48 c7 c6 72 1e 40 00 	mov    $0x401e72,%rsi
  401201:	bf 0e 00 00 00       	mov    $0xe,%edi
  401206:	e8 35 fb ff ff       	callq  400d40 <signal@plt>
  40120b:	bf 05 00 00 00       	mov    $0x5,%edi
  401210:	e8 fb fa ff ff       	callq  400d10 <alarm@plt>
  401215:	48 8d 2d 18 1e 00 00 	lea    0x1e18(%rip),%rbp        # 403034 <_IO_stdin_used+0x1f4>
  40121c:	eb c3                	jmp    4011e1 <main+0x53>
  40121e:	48 8b 3b             	mov    (%rbx),%rdi
  401221:	e8 41 fd ff ff       	callq  400f67 <usage>
  401226:	48 8d 35 3d 20 00 00 	lea    0x203d(%rip),%rsi        # 40326a <_IO_stdin_used+0x42a>
  40122d:	48 8b 3d 74 32 20 00 	mov    0x203274(%rip),%rdi        # 6044a8 <optarg@@GLIBC_2.2.5>
  401234:	e8 b7 fb ff ff       	callq  400df0 <fopen@plt>
  401239:	48 89 05 b0 32 20 00 	mov    %rax,0x2032b0(%rip)        # 6044f0 <infile>
  401240:	48 85 c0             	test   %rax,%rax
  401243:	75 3f                	jne    401284 <main+0xf6>
  401245:	48 8b 0d 5c 32 20 00 	mov    0x20325c(%rip),%rcx        # 6044a8 <optarg@@GLIBC_2.2.5>
  40124c:	48 8d 15 e9 1d 00 00 	lea    0x1de9(%rip),%rdx        # 40303c <_IO_stdin_used+0x1fc>
  401253:	be 01 00 00 00       	mov    $0x1,%esi
  401258:	48 8b 3d 61 32 20 00 	mov    0x203261(%rip),%rdi        # 6044c0 <stderr@@GLIBC_2.2.5>
  40125f:	e8 ec fb ff ff       	callq  400e50 <__fprintf_chk@plt>
  401264:	b8 01 00 00 00       	mov    $0x1,%eax
  401269:	e9 c4 00 00 00       	jmpq   401332 <main+0x1a4>
  40126e:	ba 10 00 00 00       	mov    $0x10,%edx
  401273:	be 00 00 00 00       	mov    $0x0,%esi
  401278:	48 8b 3d 29 32 20 00 	mov    0x203229(%rip),%rdi        # 6044a8 <optarg@@GLIBC_2.2.5>
  40127f:	e8 8c fb ff ff       	callq  400e10 <strtoul@plt>
  401284:	48 89 ea             	mov    %rbp,%rdx
  401287:	48 89 de             	mov    %rbx,%rsi
  40128a:	44 89 e7             	mov    %r12d,%edi
  40128d:	e8 6e fb ff ff       	callq  400e00 <getopt@plt>
  401292:	3c ff                	cmp    $0xff,%al
  401294:	74 62                	je     4012f8 <main+0x16a>
  401296:	0f be d0             	movsbl %al,%edx
  401299:	83 e8 61             	sub    $0x61,%eax
  40129c:	3c 10                	cmp    $0x10,%al
  40129e:	77 3a                	ja     4012da <main+0x14c>
  4012a0:	0f b6 c0             	movzbl %al,%eax
  4012a3:	48 8d 0d d2 1d 00 00 	lea    0x1dd2(%rip),%rcx        # 40307c <_IO_stdin_used+0x23c>
  4012aa:	48 63 04 81          	movslq (%rcx,%rax,4),%rax
  4012ae:	48 01 c8             	add    %rcx,%rax
  4012b1:	ff e0                	jmpq   *%rax
  4012b3:	ba 0a 00 00 00       	mov    $0xa,%edx
  4012b8:	be 00 00 00 00       	mov    $0x0,%esi
  4012bd:	48 8b 3d e4 31 20 00 	mov    0x2031e4(%rip),%rdi        # 6044a8 <optarg@@GLIBC_2.2.5>
  4012c4:	e8 a7 fa ff ff       	callq  400d70 <strtol@plt>
  4012c9:	41 89 c5             	mov    %eax,%r13d
  4012cc:	eb b6                	jmp    401284 <main+0xf6>
  4012ce:	c7 05 20 32 20 00 00 	movl   $0x0,0x203220(%rip)        # 6044f8 <notify>
  4012d5:	00 00 00 
  4012d8:	eb aa                	jmp    401284 <main+0xf6>
  4012da:	48 8d 35 78 1d 00 00 	lea    0x1d78(%rip),%rsi        # 403059 <_IO_stdin_used+0x219>
  4012e1:	bf 01 00 00 00       	mov    $0x1,%edi
  4012e6:	b8 00 00 00 00       	mov    $0x0,%eax
  4012eb:	e8 f0 fa ff ff       	callq  400de0 <__printf_chk@plt>
  4012f0:	48 8b 3b             	mov    (%rbx),%rdi
  4012f3:	e8 6f fc ff ff       	callq  400f67 <usage>
  4012f8:	be 00 00 00 00       	mov    $0x0,%esi
  4012fd:	44 89 ef             	mov    %r13d,%edi
  401300:	e8 fe fc ff ff       	callq  401003 <initialize_target>
  401305:	8b 15 fd 31 20 00    	mov    0x2031fd(%rip),%edx        # 604508 <cookie>
  40130b:	48 8d 35 5a 1d 00 00 	lea    0x1d5a(%rip),%rsi        # 40306c <_IO_stdin_used+0x22c>
  401312:	bf 01 00 00 00       	mov    $0x1,%edi
  401317:	b8 00 00 00 00       	mov    $0x0,%eax
  40131c:	e8 bf fa ff ff       	callq  400de0 <__printf_chk@plt>
  401321:	48 8b 3d 58 31 20 00 	mov    0x203158(%rip),%rdi        # 604480 <buf_offset>
  401328:	e8 51 0c 00 00       	callq  401f7e <stable_launch>
  40132d:	b8 00 00 00 00       	mov    $0x0,%eax
  401332:	48 83 c4 08          	add    $0x8,%rsp
  401336:	5b                   	pop    %rbx
  401337:	5d                   	pop    %rbp
  401338:	41 5c                	pop    %r12
  40133a:	41 5d                	pop    %r13
  40133c:	c3                   	retq   

000000000040133d <scramble>:
  40133d:	48 83 ec 38          	sub    $0x38,%rsp
  401341:	64 48 8b 04 25 28 00 	mov    %fs:0x28,%rax
  401348:	00 00 
  40134a:	48 89 44 24 28       	mov    %rax,0x28(%rsp)
  40134f:	31 c0                	xor    %eax,%eax
  401351:	eb 10                	jmp    401363 <scramble+0x26>
  401353:	69 d0 c0 86 00 00    	imul   $0x86c0,%eax,%edx
  401359:	01 fa                	add    %edi,%edx
  40135b:	89 c1                	mov    %eax,%ecx
  40135d:	89 14 8c             	mov    %edx,(%rsp,%rcx,4)
  401360:	83 c0 01             	add    $0x1,%eax
  401363:	83 f8 09             	cmp    $0x9,%eax
  401366:	76 eb                	jbe    401353 <scramble+0x16>
  401368:	8b 44 24 10          	mov    0x10(%rsp),%eax
  40136c:	69 c0 b5 64 00 00    	imul   $0x64b5,%eax,%eax
  401372:	89 44 24 10          	mov    %eax,0x10(%rsp)
  401376:	8b 04 24             	mov    (%rsp),%eax
  401379:	69 c0 ec 15 00 00    	imul   $0x15ec,%eax,%eax
  40137f:	89 04 24             	mov    %eax,(%rsp)
  401382:	8b 44 24 08          	mov    0x8(%rsp),%eax
  401386:	69 c0 fe 76 00 00    	imul   $0x76fe,%eax,%eax
  40138c:	89 44 24 08          	mov    %eax,0x8(%rsp)
  401390:	8b 44 24 14          	mov    0x14(%rsp),%eax
  401394:	69 c0 df c4 00 00    	imul   $0xc4df,%eax,%eax
  40139a:	89 44 24 14          	mov    %eax,0x14(%rsp)
  40139e:	8b 44 24 20          	mov    0x20(%rsp),%eax
  4013a2:	69 c0 c8 e4 00 00    	imul   $0xe4c8,%eax,%eax
  4013a8:	89 44 24 20          	mov    %eax,0x20(%rsp)
  4013ac:	8b 44 24 10          	mov    0x10(%rsp),%eax
  4013b0:	69 c0 4c 57 00 00    	imul   $0x574c,%eax,%eax
  4013b6:	89 44 24 10          	mov    %eax,0x10(%rsp)
  4013ba:	8b 44 24 10          	mov    0x10(%rsp),%eax
  4013be:	69 c0 35 8c 00 00    	imul   $0x8c35,%eax,%eax
  4013c4:	89 44 24 10          	mov    %eax,0x10(%rsp)
  4013c8:	8b 44 24 18          	mov    0x18(%rsp),%eax
  4013cc:	69 c0 a9 fa 00 00    	imul   $0xfaa9,%eax,%eax
  4013d2:	89 44 24 18          	mov    %eax,0x18(%rsp)
  4013d6:	8b 44 24 18          	mov    0x18(%rsp),%eax
  4013da:	69 c0 d7 8c 00 00    	imul   $0x8cd7,%eax,%eax
  4013e0:	89 44 24 18          	mov    %eax,0x18(%rsp)
  4013e4:	8b 44 24 1c          	mov    0x1c(%rsp),%eax
  4013e8:	69 c0 72 f9 00 00    	imul   $0xf972,%eax,%eax
  4013ee:	89 44 24 1c          	mov    %eax,0x1c(%rsp)
  4013f2:	8b 44 24 0c          	mov    0xc(%rsp),%eax
  4013f6:	69 c0 2b 47 00 00    	imul   $0x472b,%eax,%eax
  4013fc:	89 44 24 0c          	mov    %eax,0xc(%rsp)
  401400:	8b 04 24             	mov    (%rsp),%eax
  401403:	69 c0 37 35 00 00    	imul   $0x3537,%eax,%eax
  401409:	89 04 24             	mov    %eax,(%rsp)
  40140c:	8b 44 24 1c          	mov    0x1c(%rsp),%eax
  401410:	69 c0 92 1e 00 00    	imul   $0x1e92,%eax,%eax
  401416:	89 44 24 1c          	mov    %eax,0x1c(%rsp)
  40141a:	8b 44 24 20          	mov    0x20(%rsp),%eax
  40141e:	69 c0 31 33 00 00    	imul   $0x3331,%eax,%eax
  401424:	89 44 24 20          	mov    %eax,0x20(%rsp)
  401428:	8b 44 24 10          	mov    0x10(%rsp),%eax
  40142c:	69 c0 9f f2 00 00    	imul   $0xf29f,%eax,%eax
  401432:	89 44 24 10          	mov    %eax,0x10(%rsp)
  401436:	8b 44 24 20          	mov    0x20(%rsp),%eax
  40143a:	69 c0 16 69 00 00    	imul   $0x6916,%eax,%eax
  401440:	89 44 24 20          	mov    %eax,0x20(%rsp)
  401444:	8b 44 24 20          	mov    0x20(%rsp),%eax
  401448:	69 c0 8f 20 00 00    	imul   $0x208f,%eax,%eax
  40144e:	89 44 24 20          	mov    %eax,0x20(%rsp)
  401452:	8b 44 24 0c          	mov    0xc(%rsp),%eax
  401456:	69 c0 8c 90 00 00    	imul   $0x908c,%eax,%eax
  40145c:	89 44 24 0c          	mov    %eax,0xc(%rsp)
  401460:	8b 44 24 10          	mov    0x10(%rsp),%eax
  401464:	69 c0 30 81 00 00    	imul   $0x8130,%eax,%eax
  40146a:	89 44 24 10          	mov    %eax,0x10(%rsp)
  40146e:	8b 44 24 20          	mov    0x20(%rsp),%eax
  401472:	69 c0 19 f1 00 00    	imul   $0xf119,%eax,%eax
  401478:	89 44 24 20          	mov    %eax,0x20(%rsp)
  40147c:	8b 44 24 24          	mov    0x24(%rsp),%eax
  401480:	69 c0 40 3e 00 00    	imul   $0x3e40,%eax,%eax
  401486:	89 44 24 24          	mov    %eax,0x24(%rsp)
  40148a:	8b 44 24 18          	mov    0x18(%rsp),%eax
  40148e:	69 c0 f0 98 00 00    	imul   $0x98f0,%eax,%eax
  401494:	89 44 24 18          	mov    %eax,0x18(%rsp)
  401498:	8b 44 24 14          	mov    0x14(%rsp),%eax
  40149c:	69 c0 1b 7c 00 00    	imul   $0x7c1b,%eax,%eax
  4014a2:	89 44 24 14          	mov    %eax,0x14(%rsp)
  4014a6:	8b 44 24 18          	mov    0x18(%rsp),%eax
  4014aa:	69 c0 ea f0 00 00    	imul   $0xf0ea,%eax,%eax
  4014b0:	89 44 24 18          	mov    %eax,0x18(%rsp)
  4014b4:	8b 44 24 08          	mov    0x8(%rsp),%eax
  4014b8:	69 c0 f9 52 00 00    	imul   $0x52f9,%eax,%eax
  4014be:	89 44 24 08          	mov    %eax,0x8(%rsp)
  4014c2:	8b 04 24             	mov    (%rsp),%eax
  4014c5:	69 c0 4e 7c 00 00    	imul   $0x7c4e,%eax,%eax
  4014cb:	89 04 24             	mov    %eax,(%rsp)
  4014ce:	8b 44 24 14          	mov    0x14(%rsp),%eax
  4014d2:	69 c0 71 71 00 00    	imul   $0x7171,%eax,%eax
  4014d8:	89 44 24 14          	mov    %eax,0x14(%rsp)
  4014dc:	8b 44 24 10          	mov    0x10(%rsp),%eax
  4014e0:	69 c0 78 d1 00 00    	imul   $0xd178,%eax,%eax
  4014e6:	89 44 24 10          	mov    %eax,0x10(%rsp)
  4014ea:	8b 44 24 10          	mov    0x10(%rsp),%eax
  4014ee:	69 c0 27 64 00 00    	imul   $0x6427,%eax,%eax
  4014f4:	89 44 24 10          	mov    %eax,0x10(%rsp)
  4014f8:	8b 44 24 18          	mov    0x18(%rsp),%eax
  4014fc:	69 c0 5a 72 00 00    	imul   $0x725a,%eax,%eax
  401502:	89 44 24 18          	mov    %eax,0x18(%rsp)
  401506:	8b 44 24 08          	mov    0x8(%rsp),%eax
  40150a:	69 c0 ce 96 00 00    	imul   $0x96ce,%eax,%eax
  401510:	89 44 24 08          	mov    %eax,0x8(%rsp)
  401514:	8b 44 24 24          	mov    0x24(%rsp),%eax
  401518:	69 c0 1a ae 00 00    	imul   $0xae1a,%eax,%eax
  40151e:	89 44 24 24          	mov    %eax,0x24(%rsp)
  401522:	8b 44 24 18          	mov    0x18(%rsp),%eax
  401526:	69 c0 72 5a 00 00    	imul   $0x5a72,%eax,%eax
  40152c:	89 44 24 18          	mov    %eax,0x18(%rsp)
  401530:	8b 44 24 10          	mov    0x10(%rsp),%eax
  401534:	69 c0 eb 4e 00 00    	imul   $0x4eeb,%eax,%eax
  40153a:	89 44 24 10          	mov    %eax,0x10(%rsp)
  40153e:	8b 44 24 10          	mov    0x10(%rsp),%eax
  401542:	69 c0 12 94 00 00    	imul   $0x9412,%eax,%eax
  401548:	89 44 24 10          	mov    %eax,0x10(%rsp)
  40154c:	8b 44 24 1c          	mov    0x1c(%rsp),%eax
  401550:	69 c0 9b 41 00 00    	imul   $0x419b,%eax,%eax
  401556:	89 44 24 1c          	mov    %eax,0x1c(%rsp)
  40155a:	8b 44 24 1c          	mov    0x1c(%rsp),%eax
  40155e:	69 c0 69 88 00 00    	imul   $0x8869,%eax,%eax
  401564:	89 44 24 1c          	mov    %eax,0x1c(%rsp)
  401568:	8b 44 24 08          	mov    0x8(%rsp),%eax
  40156c:	69 c0 c9 9c 00 00    	imul   $0x9cc9,%eax,%eax
  401572:	89 44 24 08          	mov    %eax,0x8(%rsp)
  401576:	8b 44 24 14          	mov    0x14(%rsp),%eax
  40157a:	69 c0 25 6e 00 00    	imul   $0x6e25,%eax,%eax
  401580:	89 44 24 14          	mov    %eax,0x14(%rsp)
  401584:	8b 44 24 18          	mov    0x18(%rsp),%eax
  401588:	69 c0 76 0d 00 00    	imul   $0xd76,%eax,%eax
  40158e:	89 44 24 18          	mov    %eax,0x18(%rsp)
  401592:	8b 44 24 18          	mov    0x18(%rsp),%eax
  401596:	69 c0 0f 78 00 00    	imul   $0x780f,%eax,%eax
  40159c:	89 44 24 18          	mov    %eax,0x18(%rsp)
  4015a0:	8b 44 24 1c          	mov    0x1c(%rsp),%eax
  4015a4:	69 c0 43 5b 00 00    	imul   $0x5b43,%eax,%eax
  4015aa:	89 44 24 1c          	mov    %eax,0x1c(%rsp)
  4015ae:	8b 44 24 24          	mov    0x24(%rsp),%eax
  4015b2:	69 c0 4a 3b 00 00    	imul   $0x3b4a,%eax,%eax
  4015b8:	89 44 24 24          	mov    %eax,0x24(%rsp)
  4015bc:	8b 44 24 1c          	mov    0x1c(%rsp),%eax
  4015c0:	69 c0 85 79 00 00    	imul   $0x7985,%eax,%eax
  4015c6:	89 44 24 1c          	mov    %eax,0x1c(%rsp)
  4015ca:	8b 44 24 24          	mov    0x24(%rsp),%eax
  4015ce:	69 c0 65 31 00 00    	imul   $0x3165,%eax,%eax
  4015d4:	89 44 24 24          	mov    %eax,0x24(%rsp)
  4015d8:	8b 44 24 18          	mov    0x18(%rsp),%eax
  4015dc:	69 c0 37 f6 00 00    	imul   $0xf637,%eax,%eax
  4015e2:	89 44 24 18          	mov    %eax,0x18(%rsp)
  4015e6:	8b 44 24 24          	mov    0x24(%rsp),%eax
  4015ea:	69 c0 4f c7 00 00    	imul   $0xc74f,%eax,%eax
  4015f0:	89 44 24 24          	mov    %eax,0x24(%rsp)
  4015f4:	8b 44 24 0c          	mov    0xc(%rsp),%eax
  4015f8:	69 c0 91 7f 00 00    	imul   $0x7f91,%eax,%eax
  4015fe:	89 44 24 0c          	mov    %eax,0xc(%rsp)
  401602:	8b 44 24 08          	mov    0x8(%rsp),%eax
  401606:	69 c0 f7 e2 00 00    	imul   $0xe2f7,%eax,%eax
  40160c:	89 44 24 08          	mov    %eax,0x8(%rsp)
  401610:	8b 04 24             	mov    (%rsp),%eax
  401613:	69 c0 63 fd 00 00    	imul   $0xfd63,%eax,%eax
  401619:	89 04 24             	mov    %eax,(%rsp)
  40161c:	8b 44 24 08          	mov    0x8(%rsp),%eax
  401620:	69 c0 80 0e 00 00    	imul   $0xe80,%eax,%eax
  401626:	89 44 24 08          	mov    %eax,0x8(%rsp)
  40162a:	8b 44 24 14          	mov    0x14(%rsp),%eax
  40162e:	69 c0 5d 49 00 00    	imul   $0x495d,%eax,%eax
  401634:	89 44 24 14          	mov    %eax,0x14(%rsp)
  401638:	8b 04 24             	mov    (%rsp),%eax
  40163b:	69 c0 8a 19 00 00    	imul   $0x198a,%eax,%eax
  401641:	89 04 24             	mov    %eax,(%rsp)
  401644:	8b 44 24 1c          	mov    0x1c(%rsp),%eax
  401648:	69 c0 6d 9b 00 00    	imul   $0x9b6d,%eax,%eax
  40164e:	89 44 24 1c          	mov    %eax,0x1c(%rsp)
  401652:	8b 44 24 20          	mov    0x20(%rsp),%eax
  401656:	69 c0 d9 73 00 00    	imul   $0x73d9,%eax,%eax
  40165c:	89 44 24 20          	mov    %eax,0x20(%rsp)
  401660:	8b 44 24 20          	mov    0x20(%rsp),%eax
  401664:	69 c0 cd 48 00 00    	imul   $0x48cd,%eax,%eax
  40166a:	89 44 24 20          	mov    %eax,0x20(%rsp)
  40166e:	8b 44 24 08          	mov    0x8(%rsp),%eax
  401672:	69 c0 a8 32 00 00    	imul   $0x32a8,%eax,%eax
  401678:	89 44 24 08          	mov    %eax,0x8(%rsp)
  40167c:	8b 44 24 20          	mov    0x20(%rsp),%eax
  401680:	69 c0 69 d5 00 00    	imul   $0xd569,%eax,%eax
  401686:	89 44 24 20          	mov    %eax,0x20(%rsp)
  40168a:	8b 04 24             	mov    (%rsp),%eax
  40168d:	69 c0 cc d0 00 00    	imul   $0xd0cc,%eax,%eax
  401693:	89 04 24             	mov    %eax,(%rsp)
  401696:	8b 44 24 04          	mov    0x4(%rsp),%eax
  40169a:	69 c0 63 0d 00 00    	imul   $0xd63,%eax,%eax
  4016a0:	89 44 24 04          	mov    %eax,0x4(%rsp)
  4016a4:	8b 04 24             	mov    (%rsp),%eax
  4016a7:	69 c0 cd 3a 00 00    	imul   $0x3acd,%eax,%eax
  4016ad:	89 04 24             	mov    %eax,(%rsp)
  4016b0:	8b 44 24 08          	mov    0x8(%rsp),%eax
  4016b4:	69 c0 65 ca 00 00    	imul   $0xca65,%eax,%eax
  4016ba:	89 44 24 08          	mov    %eax,0x8(%rsp)
  4016be:	8b 44 24 1c          	mov    0x1c(%rsp),%eax
  4016c2:	69 c0 eb a7 00 00    	imul   $0xa7eb,%eax,%eax
  4016c8:	89 44 24 1c          	mov    %eax,0x1c(%rsp)
  4016cc:	8b 44 24 24          	mov    0x24(%rsp),%eax
  4016d0:	69 c0 dd 23 00 00    	imul   $0x23dd,%eax,%eax
  4016d6:	89 44 24 24          	mov    %eax,0x24(%rsp)
  4016da:	8b 44 24 0c          	mov    0xc(%rsp),%eax
  4016de:	69 c0 73 18 00 00    	imul   $0x1873,%eax,%eax
  4016e4:	89 44 24 0c          	mov    %eax,0xc(%rsp)
  4016e8:	8b 44 24 08          	mov    0x8(%rsp),%eax
  4016ec:	69 c0 ed 01 00 00    	imul   $0x1ed,%eax,%eax
  4016f2:	89 44 24 08          	mov    %eax,0x8(%rsp)
  4016f6:	8b 44 24 20          	mov    0x20(%rsp),%eax
  4016fa:	69 c0 3f 60 00 00    	imul   $0x603f,%eax,%eax
  401700:	89 44 24 20          	mov    %eax,0x20(%rsp)
  401704:	8b 44 24 24          	mov    0x24(%rsp),%eax
  401708:	69 c0 dd bd 00 00    	imul   $0xbddd,%eax,%eax
  40170e:	89 44 24 24          	mov    %eax,0x24(%rsp)
  401712:	8b 44 24 14          	mov    0x14(%rsp),%eax
  401716:	69 c0 70 31 00 00    	imul   $0x3170,%eax,%eax
  40171c:	89 44 24 14          	mov    %eax,0x14(%rsp)
  401720:	8b 44 24 1c          	mov    0x1c(%rsp),%eax
  401724:	69 c0 78 01 00 00    	imul   $0x178,%eax,%eax
  40172a:	89 44 24 1c          	mov    %eax,0x1c(%rsp)
  40172e:	8b 44 24 08          	mov    0x8(%rsp),%eax
  401732:	69 c0 2f 02 00 00    	imul   $0x22f,%eax,%eax
  401738:	89 44 24 08          	mov    %eax,0x8(%rsp)
  40173c:	8b 44 24 24          	mov    0x24(%rsp),%eax
  401740:	69 c0 31 91 00 00    	imul   $0x9131,%eax,%eax
  401746:	89 44 24 24          	mov    %eax,0x24(%rsp)
  40174a:	8b 44 24 0c          	mov    0xc(%rsp),%eax
  40174e:	69 c0 56 ee 00 00    	imul   $0xee56,%eax,%eax
  401754:	89 44 24 0c          	mov    %eax,0xc(%rsp)
  401758:	8b 44 24 08          	mov    0x8(%rsp),%eax
  40175c:	69 c0 ca a2 00 00    	imul   $0xa2ca,%eax,%eax
  401762:	89 44 24 08          	mov    %eax,0x8(%rsp)
  401766:	8b 44 24 14          	mov    0x14(%rsp),%eax
  40176a:	69 c0 89 b5 00 00    	imul   $0xb589,%eax,%eax
  401770:	89 44 24 14          	mov    %eax,0x14(%rsp)
  401774:	8b 44 24 1c          	mov    0x1c(%rsp),%eax
  401778:	69 c0 54 c1 00 00    	imul   $0xc154,%eax,%eax
  40177e:	89 44 24 1c          	mov    %eax,0x1c(%rsp)
  401782:	8b 44 24 0c          	mov    0xc(%rsp),%eax
  401786:	69 c0 c8 b3 00 00    	imul   $0xb3c8,%eax,%eax
  40178c:	89 44 24 0c          	mov    %eax,0xc(%rsp)
  401790:	8b 44 24 1c          	mov    0x1c(%rsp),%eax
  401794:	69 c0 73 f2 00 00    	imul   $0xf273,%eax,%eax
  40179a:	89 44 24 1c          	mov    %eax,0x1c(%rsp)
  40179e:	8b 44 24 14          	mov    0x14(%rsp),%eax
  4017a2:	69 c0 b0 d5 00 00    	imul   $0xd5b0,%eax,%eax
  4017a8:	89 44 24 14          	mov    %eax,0x14(%rsp)
  4017ac:	8b 44 24 10          	mov    0x10(%rsp),%eax
  4017b0:	69 c0 96 e6 00 00    	imul   $0xe696,%eax,%eax
  4017b6:	89 44 24 10          	mov    %eax,0x10(%rsp)
  4017ba:	8b 44 24 1c          	mov    0x1c(%rsp),%eax
  4017be:	69 c0 92 37 00 00    	imul   $0x3792,%eax,%eax
  4017c4:	89 44 24 1c          	mov    %eax,0x1c(%rsp)
  4017c8:	8b 44 24 1c          	mov    0x1c(%rsp),%eax
  4017cc:	69 c0 18 15 00 00    	imul   $0x1518,%eax,%eax
  4017d2:	89 44 24 1c          	mov    %eax,0x1c(%rsp)
  4017d6:	8b 44 24 14          	mov    0x14(%rsp),%eax
  4017da:	69 c0 cd 33 00 00    	imul   $0x33cd,%eax,%eax
  4017e0:	89 44 24 14          	mov    %eax,0x14(%rsp)
  4017e4:	8b 44 24 14          	mov    0x14(%rsp),%eax
  4017e8:	69 c0 9b 11 00 00    	imul   $0x119b,%eax,%eax
  4017ee:	89 44 24 14          	mov    %eax,0x14(%rsp)
  4017f2:	8b 44 24 0c          	mov    0xc(%rsp),%eax
  4017f6:	69 c0 40 2c 00 00    	imul   $0x2c40,%eax,%eax
  4017fc:	89 44 24 0c          	mov    %eax,0xc(%rsp)
  401800:	8b 44 24 1c          	mov    0x1c(%rsp),%eax
  401804:	69 c0 86 0a 00 00    	imul   $0xa86,%eax,%eax
  40180a:	89 44 24 1c          	mov    %eax,0x1c(%rsp)
  40180e:	8b 44 24 08          	mov    0x8(%rsp),%eax
  401812:	69 c0 59 5d 00 00    	imul   $0x5d59,%eax,%eax
  401818:	89 44 24 08          	mov    %eax,0x8(%rsp)
  40181c:	8b 44 24 10          	mov    0x10(%rsp),%eax
  401820:	69 c0 47 63 00 00    	imul   $0x6347,%eax,%eax
  401826:	89 44 24 10          	mov    %eax,0x10(%rsp)
  40182a:	8b 44 24 1c          	mov    0x1c(%rsp),%eax
  40182e:	69 c0 53 02 00 00    	imul   $0x253,%eax,%eax
  401834:	89 44 24 1c          	mov    %eax,0x1c(%rsp)
  401838:	8b 44 24 08          	mov    0x8(%rsp),%eax
  40183c:	69 c0 d2 0a 00 00    	imul   $0xad2,%eax,%eax
  401842:	89 44 24 08          	mov    %eax,0x8(%rsp)
  401846:	8b 44 24 08          	mov    0x8(%rsp),%eax
  40184a:	69 c0 3e b6 00 00    	imul   $0xb63e,%eax,%eax
  401850:	89 44 24 08          	mov    %eax,0x8(%rsp)
  401854:	8b 04 24             	mov    (%rsp),%eax
  401857:	69 c0 33 a8 00 00    	imul   $0xa833,%eax,%eax
  40185d:	89 04 24             	mov    %eax,(%rsp)
  401860:	ba 00 00 00 00       	mov    $0x0,%edx
  401865:	b8 00 00 00 00       	mov    $0x0,%eax
  40186a:	eb 0a                	jmp    401876 <scramble+0x539>
  40186c:	89 d1                	mov    %edx,%ecx
  40186e:	8b 0c 8c             	mov    (%rsp,%rcx,4),%ecx
  401871:	01 c8                	add    %ecx,%eax
  401873:	83 c2 01             	add    $0x1,%edx
  401876:	83 fa 09             	cmp    $0x9,%edx
  401879:	76 f1                	jbe    40186c <scramble+0x52f>
  40187b:	48 8b 74 24 28       	mov    0x28(%rsp),%rsi
  401880:	64 48 33 34 25 28 00 	xor    %fs:0x28,%rsi
  401887:	00 00 
  401889:	75 05                	jne    401890 <scramble+0x553>
  40188b:	48 83 c4 38          	add    $0x38,%rsp
  40188f:	c3                   	retq   
  401890:	e8 4b f4 ff ff       	callq  400ce0 <__stack_chk_fail@plt>

0000000000401895 <getbuf>:
  401895:	48 83 ec 38          	sub    $0x38,%rsp
  401899:	48 89 e7             	mov    %rsp,%rdi
  40189c:	e8 94 02 00 00       	callq  401b35 <Gets>
  4018a1:	b8 01 00 00 00       	mov    $0x1,%eax
  4018a6:	48 83 c4 38          	add    $0x38,%rsp
  4018aa:	c3                   	retq   

00000000004018ab <touch1>:
  4018ab:	48 83 ec 08          	sub    $0x8,%rsp
  4018af:	c7 05 47 2c 20 00 01 	movl   $0x1,0x202c47(%rip)        # 604500 <vlevel>
  4018b6:	00 00 00 
  4018b9:	48 8d 3d 4e 18 00 00 	lea    0x184e(%rip),%rdi        # 40310e <_IO_stdin_used+0x2ce>
  4018c0:	e8 fb f3 ff ff       	callq  400cc0 <puts@plt>
  4018c5:	bf 01 00 00 00       	mov    $0x1,%edi
  4018ca:	e8 af 03 00 00       	callq  401c7e <validate>
  4018cf:	bf 00 00 00 00       	mov    $0x0,%edi
  4018d4:	e8 57 f5 ff ff       	callq  400e30 <exit@plt>

00000000004018d9 <touch2>:
  4018d9:	48 83 ec 08          	sub    $0x8,%rsp
  4018dd:	89 fa                	mov    %edi,%edx
  4018df:	c7 05 17 2c 20 00 02 	movl   $0x2,0x202c17(%rip)        # 604500 <vlevel>
  4018e6:	00 00 00 
  4018e9:	39 3d 19 2c 20 00    	cmp    %edi,0x202c19(%rip)        # 604508 <cookie>
  4018ef:	74 2a                	je     40191b <touch2+0x42>
  4018f1:	48 8d 35 60 18 00 00 	lea    0x1860(%rip),%rsi        # 403158 <_IO_stdin_used+0x318>
  4018f8:	bf 01 00 00 00       	mov    $0x1,%edi
  4018fd:	b8 00 00 00 00       	mov    $0x0,%eax
  401902:	e8 d9 f4 ff ff       	callq  400de0 <__printf_chk@plt>
  401907:	bf 02 00 00 00       	mov    $0x2,%edi
  40190c:	e8 3d 04 00 00       	callq  401d4e <fail>
  401911:	bf 00 00 00 00       	mov    $0x0,%edi
  401916:	e8 15 f5 ff ff       	callq  400e30 <exit@plt>
  40191b:	48 8d 35 0e 18 00 00 	lea    0x180e(%rip),%rsi        # 403130 <_IO_stdin_used+0x2f0>
  401922:	bf 01 00 00 00       	mov    $0x1,%edi
  401927:	b8 00 00 00 00       	mov    $0x0,%eax
  40192c:	e8 af f4 ff ff       	callq  400de0 <__printf_chk@plt>
  401931:	bf 02 00 00 00       	mov    $0x2,%edi
  401936:	e8 43 03 00 00       	callq  401c7e <validate>
  40193b:	eb d4                	jmp    401911 <touch2+0x38>

000000000040193d <hexmatch>:
  40193d:	41 54                	push   %r12
  40193f:	55                   	push   %rbp
  401940:	53                   	push   %rbx
  401941:	48 83 c4 80          	add    $0xffffffffffffff80,%rsp
  401945:	89 fd                	mov    %edi,%ebp
  401947:	48 89 f3             	mov    %rsi,%rbx
  40194a:	64 48 8b 04 25 28 00 	mov    %fs:0x28,%rax
  401951:	00 00 
  401953:	48 89 44 24 78       	mov    %rax,0x78(%rsp)
  401958:	31 c0                	xor    %eax,%eax
  40195a:	e8 41 f4 ff ff       	callq  400da0 <random@plt>
  40195f:	48 89 c1             	mov    %rax,%rcx
  401962:	48 ba 0b d7 a3 70 3d 	movabs $0xa3d70a3d70a3d70b,%rdx
  401969:	0a d7 a3 
  40196c:	48 f7 ea             	imul   %rdx
  40196f:	48 01 ca             	add    %rcx,%rdx
  401972:	48 c1 fa 06          	sar    $0x6,%rdx
  401976:	48 89 c8             	mov    %rcx,%rax
  401979:	48 c1 f8 3f          	sar    $0x3f,%rax
  40197d:	48 29 c2             	sub    %rax,%rdx
  401980:	48 8d 04 92          	lea    (%rdx,%rdx,4),%rax
  401984:	48 8d 14 80          	lea    (%rax,%rax,4),%rdx
  401988:	48 8d 04 95 00 00 00 	lea    0x0(,%rdx,4),%rax
  40198f:	00 
  401990:	48 29 c1             	sub    %rax,%rcx
  401993:	4c 8d 24 0c          	lea    (%rsp,%rcx,1),%r12
  401997:	41 89 e8             	mov    %ebp,%r8d
  40199a:	48 8d 0d 8a 17 00 00 	lea    0x178a(%rip),%rcx        # 40312b <_IO_stdin_used+0x2eb>
  4019a1:	48 c7 c2 ff ff ff ff 	mov    $0xffffffffffffffff,%rdx
  4019a8:	be 01 00 00 00       	mov    $0x1,%esi
  4019ad:	4c 89 e7             	mov    %r12,%rdi
  4019b0:	b8 00 00 00 00       	mov    $0x0,%eax
  4019b5:	e8 a6 f4 ff ff       	callq  400e60 <__sprintf_chk@plt>
  4019ba:	ba 09 00 00 00       	mov    $0x9,%edx
  4019bf:	4c 89 e6             	mov    %r12,%rsi
  4019c2:	48 89 df             	mov    %rbx,%rdi
  4019c5:	e8 d6 f2 ff ff       	callq  400ca0 <strncmp@plt>
  4019ca:	85 c0                	test   %eax,%eax
  4019cc:	0f 94 c0             	sete   %al
  4019cf:	48 8b 5c 24 78       	mov    0x78(%rsp),%rbx
  4019d4:	64 48 33 1c 25 28 00 	xor    %fs:0x28,%rbx
  4019db:	00 00 
  4019dd:	75 0c                	jne    4019eb <hexmatch+0xae>
  4019df:	0f b6 c0             	movzbl %al,%eax
  4019e2:	48 83 ec 80          	sub    $0xffffffffffffff80,%rsp
  4019e6:	5b                   	pop    %rbx
  4019e7:	5d                   	pop    %rbp
  4019e8:	41 5c                	pop    %r12
  4019ea:	c3                   	retq   
  4019eb:	e8 f0 f2 ff ff       	callq  400ce0 <__stack_chk_fail@plt>

00000000004019f0 <touch3>:
  4019f0:	53                   	push   %rbx
  4019f1:	48 89 fb             	mov    %rdi,%rbx
  4019f4:	c7 05 02 2b 20 00 03 	movl   $0x3,0x202b02(%rip)        # 604500 <vlevel>
  4019fb:	00 00 00 
  4019fe:	48 89 fe             	mov    %rdi,%rsi
  401a01:	8b 3d 01 2b 20 00    	mov    0x202b01(%rip),%edi        # 604508 <cookie>
  401a07:	e8 31 ff ff ff       	callq  40193d <hexmatch>
  401a0c:	85 c0                	test   %eax,%eax
  401a0e:	74 2d                	je     401a3d <touch3+0x4d>
  401a10:	48 89 da             	mov    %rbx,%rdx
  401a13:	48 8d 35 66 17 00 00 	lea    0x1766(%rip),%rsi        # 403180 <_IO_stdin_used+0x340>
  401a1a:	bf 01 00 00 00       	mov    $0x1,%edi
  401a1f:	b8 00 00 00 00       	mov    $0x0,%eax
  401a24:	e8 b7 f3 ff ff       	callq  400de0 <__printf_chk@plt>
  401a29:	bf 03 00 00 00       	mov    $0x3,%edi
  401a2e:	e8 4b 02 00 00       	callq  401c7e <validate>
  401a33:	bf 00 00 00 00       	mov    $0x0,%edi
  401a38:	e8 f3 f3 ff ff       	callq  400e30 <exit@plt>
  401a3d:	48 89 da             	mov    %rbx,%rdx
  401a40:	48 8d 35 61 17 00 00 	lea    0x1761(%rip),%rsi        # 4031a8 <_IO_stdin_used+0x368>
  401a47:	bf 01 00 00 00       	mov    $0x1,%edi
  401a4c:	b8 00 00 00 00       	mov    $0x0,%eax
  401a51:	e8 8a f3 ff ff       	callq  400de0 <__printf_chk@plt>
  401a56:	bf 03 00 00 00       	mov    $0x3,%edi
  401a5b:	e8 ee 02 00 00       	callq  401d4e <fail>
  401a60:	eb d1                	jmp    401a33 <touch3+0x43>

0000000000401a62 <test>:
  401a62:	48 83 ec 08          	sub    $0x8,%rsp
  401a66:	b8 00 00 00 00       	mov    $0x0,%eax
  401a6b:	e8 25 fe ff ff       	callq  401895 <getbuf>
  401a70:	89 c2                	mov    %eax,%edx
  401a72:	48 8d 35 57 17 00 00 	lea    0x1757(%rip),%rsi        # 4031d0 <_IO_stdin_used+0x390>
  401a79:	bf 01 00 00 00       	mov    $0x1,%edi
  401a7e:	b8 00 00 00 00       	mov    $0x0,%eax
  401a83:	e8 58 f3 ff ff       	callq  400de0 <__printf_chk@plt>
  401a88:	48 83 c4 08          	add    $0x8,%rsp
  401a8c:	c3                   	retq   

0000000000401a8d <save_char>:
  401a8d:	8b 05 91 36 20 00    	mov    0x203691(%rip),%eax        # 605124 <gets_cnt>
  401a93:	3d ff 03 00 00       	cmp    $0x3ff,%eax
  401a98:	7f 4a                	jg     401ae4 <save_char+0x57>
  401a9a:	89 f9                	mov    %edi,%ecx
  401a9c:	c0 e9 04             	shr    $0x4,%cl
  401a9f:	8d 14 40             	lea    (%rax,%rax,2),%edx
  401aa2:	4c 8d 05 97 19 00 00 	lea    0x1997(%rip),%r8        # 403440 <trans_char>
  401aa9:	83 e1 0f             	and    $0xf,%ecx
  401aac:	45 0f b6 0c 08       	movzbl (%r8,%rcx,1),%r9d
  401ab1:	48 8d 0d 68 2a 20 00 	lea    0x202a68(%rip),%rcx        # 604520 <gets_buf>
  401ab8:	48 63 f2             	movslq %edx,%rsi
  401abb:	44 88 0c 31          	mov    %r9b,(%rcx,%rsi,1)
  401abf:	8d 72 01             	lea    0x1(%rdx),%esi
  401ac2:	83 e7 0f             	and    $0xf,%edi
  401ac5:	41 0f b6 3c 38       	movzbl (%r8,%rdi,1),%edi
  401aca:	48 63 f6             	movslq %esi,%rsi
  401acd:	40 88 3c 31          	mov    %dil,(%rcx,%rsi,1)
  401ad1:	83 c2 02             	add    $0x2,%edx
  401ad4:	48 63 d2             	movslq %edx,%rdx
  401ad7:	c6 04 11 20          	movb   $0x20,(%rcx,%rdx,1)
  401adb:	83 c0 01             	add    $0x1,%eax
  401ade:	89 05 40 36 20 00    	mov    %eax,0x203640(%rip)        # 605124 <gets_cnt>
  401ae4:	f3 c3                	repz retq 

0000000000401ae6 <save_term>:
  401ae6:	8b 05 38 36 20 00    	mov    0x203638(%rip),%eax        # 605124 <gets_cnt>
  401aec:	8d 04 40             	lea    (%rax,%rax,2),%eax
  401aef:	48 98                	cltq   
  401af1:	48 8d 15 28 2a 20 00 	lea    0x202a28(%rip),%rdx        # 604520 <gets_buf>
  401af8:	c6 04 02 00          	movb   $0x0,(%rdx,%rax,1)
  401afc:	c3                   	retq   

0000000000401afd <check_fail>:
  401afd:	48 83 ec 08          	sub    $0x8,%rsp
  401b01:	0f be 15 20 36 20 00 	movsbl 0x203620(%rip),%edx        # 605128 <target_prefix>
  401b08:	4c 8d 05 11 2a 20 00 	lea    0x202a11(%rip),%r8        # 604520 <gets_buf>
  401b0f:	8b 0d e7 29 20 00    	mov    0x2029e7(%rip),%ecx        # 6044fc <check_level>
  401b15:	48 8d 35 d7 16 00 00 	lea    0x16d7(%rip),%rsi        # 4031f3 <_IO_stdin_used+0x3b3>
  401b1c:	bf 01 00 00 00       	mov    $0x1,%edi
  401b21:	b8 00 00 00 00       	mov    $0x0,%eax
  401b26:	e8 b5 f2 ff ff       	callq  400de0 <__printf_chk@plt>
  401b2b:	bf 01 00 00 00       	mov    $0x1,%edi
  401b30:	e8 fb f2 ff ff       	callq  400e30 <exit@plt>

0000000000401b35 <Gets>:
  401b35:	41 54                	push   %r12
  401b37:	55                   	push   %rbp
  401b38:	53                   	push   %rbx
  401b39:	49 89 fc             	mov    %rdi,%r12
  401b3c:	c7 05 de 35 20 00 00 	movl   $0x0,0x2035de(%rip)        # 605124 <gets_cnt>
  401b43:	00 00 00 
  401b46:	48 89 fb             	mov    %rdi,%rbx
  401b49:	eb 11                	jmp    401b5c <Gets+0x27>
  401b4b:	48 8d 6b 01          	lea    0x1(%rbx),%rbp
  401b4f:	88 03                	mov    %al,(%rbx)
  401b51:	0f b6 f8             	movzbl %al,%edi
  401b54:	e8 34 ff ff ff       	callq  401a8d <save_char>
  401b59:	48 89 eb             	mov    %rbp,%rbx
  401b5c:	48 8b 3d 8d 29 20 00 	mov    0x20298d(%rip),%rdi        # 6044f0 <infile>
  401b63:	e8 48 f2 ff ff       	callq  400db0 <_IO_getc@plt>
  401b68:	83 f8 ff             	cmp    $0xffffffff,%eax
  401b6b:	74 05                	je     401b72 <Gets+0x3d>
  401b6d:	83 f8 0a             	cmp    $0xa,%eax
  401b70:	75 d9                	jne    401b4b <Gets+0x16>
  401b72:	c6 03 00             	movb   $0x0,(%rbx)
  401b75:	b8 00 00 00 00       	mov    $0x0,%eax
  401b7a:	e8 67 ff ff ff       	callq  401ae6 <save_term>
  401b7f:	4c 89 e0             	mov    %r12,%rax
  401b82:	5b                   	pop    %rbx
  401b83:	5d                   	pop    %rbp
  401b84:	41 5c                	pop    %r12
  401b86:	c3                   	retq   

0000000000401b87 <notify_server>:
  401b87:	53                   	push   %rbx
  401b88:	48 81 ec 10 20 00 00 	sub    $0x2010,%rsp
  401b8f:	64 48 8b 04 25 28 00 	mov    %fs:0x28,%rax
  401b96:	00 00 
  401b98:	48 89 84 24 08 20 00 	mov    %rax,0x2008(%rsp)
  401b9f:	00 
  401ba0:	31 c0                	xor    %eax,%eax
  401ba2:	83 3d 63 29 20 00 00 	cmpl   $0x0,0x202963(%rip)        # 60450c <is_checker>
  401ba9:	75 7c                	jne    401c27 <notify_server+0xa0>
  401bab:	8b 05 73 35 20 00    	mov    0x203573(%rip),%eax        # 605124 <gets_cnt>
  401bb1:	83 c0 64             	add    $0x64,%eax
  401bb4:	3d 00 20 00 00       	cmp    $0x2000,%eax
  401bb9:	0f 8f 84 00 00 00    	jg     401c43 <notify_server+0xbc>
  401bbf:	0f be 05 62 35 20 00 	movsbl 0x203562(%rip),%eax        # 605128 <target_prefix>
  401bc6:	83 3d 2b 29 20 00 00 	cmpl   $0x0,0x20292b(%rip)        # 6044f8 <notify>
  401bcd:	0f 84 90 00 00 00    	je     401c63 <notify_server+0xdc>
  401bd3:	8b 15 2b 29 20 00    	mov    0x20292b(%rip),%edx        # 604504 <authkey>
  401bd9:	85 ff                	test   %edi,%edi
  401bdb:	0f 85 8c 00 00 00    	jne    401c6d <notify_server+0xe6>
  401be1:	48 8d 1d 26 16 00 00 	lea    0x1626(%rip),%rbx        # 40320e <_IO_stdin_used+0x3ce>
  401be8:	48 89 e7             	mov    %rsp,%rdi
  401beb:	48 8d 0d 2e 29 20 00 	lea    0x20292e(%rip),%rcx        # 604520 <gets_buf>
  401bf2:	51                   	push   %rcx
  401bf3:	56                   	push   %rsi
  401bf4:	50                   	push   %rax
  401bf5:	52                   	push   %rdx
  401bf6:	49 89 d9             	mov    %rbx,%r9
  401bf9:	44 8b 05 30 25 20 00 	mov    0x202530(%rip),%r8d        # 604130 <target_id>
  401c00:	48 8d 0d 0c 16 00 00 	lea    0x160c(%rip),%rcx        # 403213 <_IO_stdin_used+0x3d3>
  401c07:	ba 00 20 00 00       	mov    $0x2000,%edx
  401c0c:	be 01 00 00 00       	mov    $0x1,%esi
  401c11:	b8 00 00 00 00       	mov    $0x0,%eax
  401c16:	e8 45 f2 ff ff       	callq  400e60 <__sprintf_chk@plt>
  401c1b:	48 83 c4 20          	add    $0x20,%rsp
  401c1f:	48 89 df             	mov    %rbx,%rdi
  401c22:	e8 99 f0 ff ff       	callq  400cc0 <puts@plt>
  401c27:	48 8b 84 24 08 20 00 	mov    0x2008(%rsp),%rax
  401c2e:	00 
  401c2f:	64 48 33 04 25 28 00 	xor    %fs:0x28,%rax
  401c36:	00 00 
  401c38:	75 3f                	jne    401c79 <notify_server+0xf2>
  401c3a:	48 81 c4 10 20 00 00 	add    $0x2010,%rsp
  401c41:	5b                   	pop    %rbx
  401c42:	c3                   	retq   
  401c43:	48 8d 35 8e 16 00 00 	lea    0x168e(%rip),%rsi        # 4032d8 <_IO_stdin_used+0x498>
  401c4a:	bf 01 00 00 00       	mov    $0x1,%edi
  401c4f:	b8 00 00 00 00       	mov    $0x0,%eax
  401c54:	e8 87 f1 ff ff       	callq  400de0 <__printf_chk@plt>
  401c59:	bf 01 00 00 00       	mov    $0x1,%edi
  401c5e:	e8 cd f1 ff ff       	callq  400e30 <exit@plt>
  401c63:	ba ff ff ff ff       	mov    $0xffffffff,%edx
  401c68:	e9 6c ff ff ff       	jmpq   401bd9 <notify_server+0x52>
  401c6d:	48 8d 1d 95 15 00 00 	lea    0x1595(%rip),%rbx        # 403209 <_IO_stdin_used+0x3c9>
  401c74:	e9 6f ff ff ff       	jmpq   401be8 <notify_server+0x61>
  401c79:	e8 62 f0 ff ff       	callq  400ce0 <__stack_chk_fail@plt>

0000000000401c7e <validate>:
  401c7e:	53                   	push   %rbx
  401c7f:	89 fb                	mov    %edi,%ebx
  401c81:	83 3d 84 28 20 00 00 	cmpl   $0x0,0x202884(%rip)        # 60450c <is_checker>
  401c88:	74 72                	je     401cfc <validate+0x7e>
  401c8a:	39 3d 70 28 20 00    	cmp    %edi,0x202870(%rip)        # 604500 <vlevel>
  401c90:	75 32                	jne    401cc4 <validate+0x46>
  401c92:	8b 15 64 28 20 00    	mov    0x202864(%rip),%edx        # 6044fc <check_level>
  401c98:	39 fa                	cmp    %edi,%edx
  401c9a:	75 3e                	jne    401cda <validate+0x5c>
  401c9c:	0f be 15 85 34 20 00 	movsbl 0x203485(%rip),%edx        # 605128 <target_prefix>
  401ca3:	4c 8d 05 76 28 20 00 	lea    0x202876(%rip),%r8        # 604520 <gets_buf>
  401caa:	89 f9                	mov    %edi,%ecx
  401cac:	48 8d 35 9a 15 00 00 	lea    0x159a(%rip),%rsi        # 40324d <_IO_stdin_used+0x40d>
  401cb3:	bf 01 00 00 00       	mov    $0x1,%edi
  401cb8:	b8 00 00 00 00       	mov    $0x0,%eax
  401cbd:	e8 1e f1 ff ff       	callq  400de0 <__printf_chk@plt>
  401cc2:	5b                   	pop    %rbx
  401cc3:	c3                   	retq   
  401cc4:	48 8d 3d 64 15 00 00 	lea    0x1564(%rip),%rdi        # 40322f <_IO_stdin_used+0x3ef>
  401ccb:	e8 f0 ef ff ff       	callq  400cc0 <puts@plt>
  401cd0:	b8 00 00 00 00       	mov    $0x0,%eax
  401cd5:	e8 23 fe ff ff       	callq  401afd <check_fail>
  401cda:	89 f9                	mov    %edi,%ecx
  401cdc:	48 8d 35 25 16 00 00 	lea    0x1625(%rip),%rsi        # 403308 <_IO_stdin_used+0x4c8>
  401ce3:	bf 01 00 00 00       	mov    $0x1,%edi
  401ce8:	b8 00 00 00 00       	mov    $0x0,%eax
  401ced:	e8 ee f0 ff ff       	callq  400de0 <__printf_chk@plt>
  401cf2:	b8 00 00 00 00       	mov    $0x0,%eax
  401cf7:	e8 01 fe ff ff       	callq  401afd <check_fail>
  401cfc:	39 3d fe 27 20 00    	cmp    %edi,0x2027fe(%rip)        # 604500 <vlevel>
  401d02:	74 1a                	je     401d1e <validate+0xa0>
  401d04:	48 8d 3d 24 15 00 00 	lea    0x1524(%rip),%rdi        # 40322f <_IO_stdin_used+0x3ef>
  401d0b:	e8 b0 ef ff ff       	callq  400cc0 <puts@plt>
  401d10:	89 de                	mov    %ebx,%esi
  401d12:	bf 00 00 00 00       	mov    $0x0,%edi
  401d17:	e8 6b fe ff ff       	callq  401b87 <notify_server>
  401d1c:	eb a4                	jmp    401cc2 <validate+0x44>
  401d1e:	0f be 0d 03 34 20 00 	movsbl 0x203403(%rip),%ecx        # 605128 <target_prefix>
  401d25:	89 fa                	mov    %edi,%edx
  401d27:	48 8d 35 02 16 00 00 	lea    0x1602(%rip),%rsi        # 403330 <_IO_stdin_used+0x4f0>
  401d2e:	bf 01 00 00 00       	mov    $0x1,%edi
  401d33:	b8 00 00 00 00       	mov    $0x0,%eax
  401d38:	e8 a3 f0 ff ff       	callq  400de0 <__printf_chk@plt>
  401d3d:	89 de                	mov    %ebx,%esi
  401d3f:	bf 01 00 00 00       	mov    $0x1,%edi
  401d44:	e8 3e fe ff ff       	callq  401b87 <notify_server>
  401d49:	e9 74 ff ff ff       	jmpq   401cc2 <validate+0x44>

0000000000401d4e <fail>:
  401d4e:	48 83 ec 08          	sub    $0x8,%rsp
  401d52:	83 3d b3 27 20 00 00 	cmpl   $0x0,0x2027b3(%rip)        # 60450c <is_checker>
  401d59:	75 11                	jne    401d6c <fail+0x1e>
  401d5b:	89 fe                	mov    %edi,%esi
  401d5d:	bf 00 00 00 00       	mov    $0x0,%edi
  401d62:	e8 20 fe ff ff       	callq  401b87 <notify_server>
  401d67:	48 83 c4 08          	add    $0x8,%rsp
  401d6b:	c3                   	retq   
  401d6c:	b8 00 00 00 00       	mov    $0x0,%eax
  401d71:	e8 87 fd ff ff       	callq  401afd <check_fail>

0000000000401d76 <bushandler>:
  401d76:	48 83 ec 08          	sub    $0x8,%rsp
  401d7a:	83 3d 8b 27 20 00 00 	cmpl   $0x0,0x20278b(%rip)        # 60450c <is_checker>
  401d81:	74 16                	je     401d99 <bushandler+0x23>
  401d83:	48 8d 3d d8 14 00 00 	lea    0x14d8(%rip),%rdi        # 403262 <_IO_stdin_used+0x422>
  401d8a:	e8 31 ef ff ff       	callq  400cc0 <puts@plt>
  401d8f:	b8 00 00 00 00       	mov    $0x0,%eax
  401d94:	e8 64 fd ff ff       	callq  401afd <check_fail>
  401d99:	48 8d 3d c8 15 00 00 	lea    0x15c8(%rip),%rdi        # 403368 <_IO_stdin_used+0x528>
  401da0:	e8 1b ef ff ff       	callq  400cc0 <puts@plt>
  401da5:	48 8d 3d c0 14 00 00 	lea    0x14c0(%rip),%rdi        # 40326c <_IO_stdin_used+0x42c>
  401dac:	e8 0f ef ff ff       	callq  400cc0 <puts@plt>
  401db1:	be 00 00 00 00       	mov    $0x0,%esi
  401db6:	bf 00 00 00 00       	mov    $0x0,%edi
  401dbb:	e8 c7 fd ff ff       	callq  401b87 <notify_server>
  401dc0:	bf 01 00 00 00       	mov    $0x1,%edi
  401dc5:	e8 66 f0 ff ff       	callq  400e30 <exit@plt>

0000000000401dca <seghandler>:
  401dca:	48 83 ec 08          	sub    $0x8,%rsp
  401dce:	83 3d 37 27 20 00 00 	cmpl   $0x0,0x202737(%rip)        # 60450c <is_checker>
  401dd5:	74 16                	je     401ded <seghandler+0x23>
  401dd7:	48 8d 3d a4 14 00 00 	lea    0x14a4(%rip),%rdi        # 403282 <_IO_stdin_used+0x442>
  401dde:	e8 dd ee ff ff       	callq  400cc0 <puts@plt>
  401de3:	b8 00 00 00 00       	mov    $0x0,%eax
  401de8:	e8 10 fd ff ff       	callq  401afd <check_fail>
  401ded:	48 8d 3d 94 15 00 00 	lea    0x1594(%rip),%rdi        # 403388 <_IO_stdin_used+0x548>
  401df4:	e8 c7 ee ff ff       	callq  400cc0 <puts@plt>
  401df9:	48 8d 3d 6c 14 00 00 	lea    0x146c(%rip),%rdi        # 40326c <_IO_stdin_used+0x42c>
  401e00:	e8 bb ee ff ff       	callq  400cc0 <puts@plt>
  401e05:	be 00 00 00 00       	mov    $0x0,%esi
  401e0a:	bf 00 00 00 00       	mov    $0x0,%edi
  401e0f:	e8 73 fd ff ff       	callq  401b87 <notify_server>
  401e14:	bf 01 00 00 00       	mov    $0x1,%edi
  401e19:	e8 12 f0 ff ff       	callq  400e30 <exit@plt>

0000000000401e1e <illegalhandler>:
  401e1e:	48 83 ec 08          	sub    $0x8,%rsp
  401e22:	83 3d e3 26 20 00 00 	cmpl   $0x0,0x2026e3(%rip)        # 60450c <is_checker>
  401e29:	74 16                	je     401e41 <illegalhandler+0x23>
  401e2b:	48 8d 3d 63 14 00 00 	lea    0x1463(%rip),%rdi        # 403295 <_IO_stdin_used+0x455>
  401e32:	e8 89 ee ff ff       	callq  400cc0 <puts@plt>
  401e37:	b8 00 00 00 00       	mov    $0x0,%eax
  401e3c:	e8 bc fc ff ff       	callq  401afd <check_fail>
  401e41:	48 8d 3d 68 15 00 00 	lea    0x1568(%rip),%rdi        # 4033b0 <_IO_stdin_used+0x570>
  401e48:	e8 73 ee ff ff       	callq  400cc0 <puts@plt>
  401e4d:	48 8d 3d 18 14 00 00 	lea    0x1418(%rip),%rdi        # 40326c <_IO_stdin_used+0x42c>
  401e54:	e8 67 ee ff ff       	callq  400cc0 <puts@plt>
  401e59:	be 00 00 00 00       	mov    $0x0,%esi
  401e5e:	bf 00 00 00 00       	mov    $0x0,%edi
  401e63:	e8 1f fd ff ff       	callq  401b87 <notify_server>
  401e68:	bf 01 00 00 00       	mov    $0x1,%edi
  401e6d:	e8 be ef ff ff       	callq  400e30 <exit@plt>

0000000000401e72 <sigalrmhandler>:
  401e72:	48 83 ec 08          	sub    $0x8,%rsp
  401e76:	83 3d 8f 26 20 00 00 	cmpl   $0x0,0x20268f(%rip)        # 60450c <is_checker>
  401e7d:	74 16                	je     401e95 <sigalrmhandler+0x23>
  401e7f:	48 8d 3d 23 14 00 00 	lea    0x1423(%rip),%rdi        # 4032a9 <_IO_stdin_used+0x469>
  401e86:	e8 35 ee ff ff       	callq  400cc0 <puts@plt>
  401e8b:	b8 00 00 00 00       	mov    $0x0,%eax
  401e90:	e8 68 fc ff ff       	callq  401afd <check_fail>
  401e95:	ba 05 00 00 00       	mov    $0x5,%edx
  401e9a:	48 8d 35 3f 15 00 00 	lea    0x153f(%rip),%rsi        # 4033e0 <_IO_stdin_used+0x5a0>
  401ea1:	bf 01 00 00 00       	mov    $0x1,%edi
  401ea6:	b8 00 00 00 00       	mov    $0x0,%eax
  401eab:	e8 30 ef ff ff       	callq  400de0 <__printf_chk@plt>
  401eb0:	be 00 00 00 00       	mov    $0x0,%esi
  401eb5:	bf 00 00 00 00       	mov    $0x0,%edi
  401eba:	e8 c8 fc ff ff       	callq  401b87 <notify_server>
  401ebf:	bf 01 00 00 00       	mov    $0x1,%edi
  401ec4:	e8 67 ef ff ff       	callq  400e30 <exit@plt>

0000000000401ec9 <launch>:
  401ec9:	55                   	push   %rbp
  401eca:	48 89 e5             	mov    %rsp,%rbp
  401ecd:	48 83 ec 10          	sub    $0x10,%rsp
  401ed1:	48 89 fa             	mov    %rdi,%rdx
  401ed4:	64 48 8b 04 25 28 00 	mov    %fs:0x28,%rax
  401edb:	00 00 
  401edd:	48 89 45 f8          	mov    %rax,-0x8(%rbp)
  401ee1:	31 c0                	xor    %eax,%eax
  401ee3:	48 8d 47 1e          	lea    0x1e(%rdi),%rax
  401ee7:	48 83 e0 f0          	and    $0xfffffffffffffff0,%rax
  401eeb:	48 29 c4             	sub    %rax,%rsp
  401eee:	48 8d 7c 24 0f       	lea    0xf(%rsp),%rdi
  401ef3:	48 83 e7 f0          	and    $0xfffffffffffffff0,%rdi
  401ef7:	be f4 00 00 00       	mov    $0xf4,%esi
  401efc:	e8 ff ed ff ff       	callq  400d00 <memset@plt>
  401f01:	48 8b 05 98 25 20 00 	mov    0x202598(%rip),%rax        # 6044a0 <stdin@@GLIBC_2.2.5>
  401f08:	48 39 05 e1 25 20 00 	cmp    %rax,0x2025e1(%rip)        # 6044f0 <infile>
  401f0f:	74 3a                	je     401f4b <launch+0x82>
  401f11:	c7 05 e5 25 20 00 00 	movl   $0x0,0x2025e5(%rip)        # 604500 <vlevel>
  401f18:	00 00 00 
  401f1b:	b8 00 00 00 00       	mov    $0x0,%eax
  401f20:	e8 3d fb ff ff       	callq  401a62 <test>
  401f25:	83 3d e0 25 20 00 00 	cmpl   $0x0,0x2025e0(%rip)        # 60450c <is_checker>
  401f2c:	75 35                	jne    401f63 <launch+0x9a>
  401f2e:	48 8d 3d 94 13 00 00 	lea    0x1394(%rip),%rdi        # 4032c9 <_IO_stdin_used+0x489>
  401f35:	e8 86 ed ff ff       	callq  400cc0 <puts@plt>
  401f3a:	48 8b 45 f8          	mov    -0x8(%rbp),%rax
  401f3e:	64 48 33 04 25 28 00 	xor    %fs:0x28,%rax
  401f45:	00 00 
  401f47:	75 30                	jne    401f79 <launch+0xb0>
  401f49:	c9                   	leaveq 
  401f4a:	c3                   	retq   
  401f4b:	48 8d 35 5f 13 00 00 	lea    0x135f(%rip),%rsi        # 4032b1 <_IO_stdin_used+0x471>
  401f52:	bf 01 00 00 00       	mov    $0x1,%edi
  401f57:	b8 00 00 00 00       	mov    $0x0,%eax
  401f5c:	e8 7f ee ff ff       	callq  400de0 <__printf_chk@plt>
  401f61:	eb ae                	jmp    401f11 <launch+0x48>
  401f63:	48 8d 3d 54 13 00 00 	lea    0x1354(%rip),%rdi        # 4032be <_IO_stdin_used+0x47e>
  401f6a:	e8 51 ed ff ff       	callq  400cc0 <puts@plt>
  401f6f:	b8 00 00 00 00       	mov    $0x0,%eax
  401f74:	e8 84 fb ff ff       	callq  401afd <check_fail>
  401f79:	e8 62 ed ff ff       	callq  400ce0 <__stack_chk_fail@plt>

0000000000401f7e <stable_launch>:
  401f7e:	53                   	push   %rbx
  401f7f:	48 89 3d 62 25 20 00 	mov    %rdi,0x202562(%rip)        # 6044e8 <global_offset>
  401f86:	41 b9 00 00 00 00    	mov    $0x0,%r9d
  401f8c:	41 b8 00 00 00 00    	mov    $0x0,%r8d
  401f92:	b9 32 01 00 00       	mov    $0x132,%ecx
  401f97:	ba 07 00 00 00       	mov    $0x7,%edx
  401f9c:	be 00 00 10 00       	mov    $0x100000,%esi
  401fa1:	bf 00 60 58 55       	mov    $0x55586000,%edi
  401fa6:	e8 45 ed ff ff       	callq  400cf0 <mmap@plt>
  401fab:	48 89 c3             	mov    %rax,%rbx
  401fae:	48 3d 00 60 58 55    	cmp    $0x55586000,%rax
  401fb4:	75 43                	jne    401ff9 <stable_launch+0x7b>
  401fb6:	48 8d 90 f8 ff 0f 00 	lea    0xffff8(%rax),%rdx
  401fbd:	48 89 15 6c 31 20 00 	mov    %rdx,0x20316c(%rip)        # 605130 <stack_top>
  401fc4:	48 89 e0             	mov    %rsp,%rax
  401fc7:	48 89 d4             	mov    %rdx,%rsp
  401fca:	48 89 c2             	mov    %rax,%rdx
  401fcd:	48 89 15 0c 25 20 00 	mov    %rdx,0x20250c(%rip)        # 6044e0 <global_save_stack>
  401fd4:	48 8b 3d 0d 25 20 00 	mov    0x20250d(%rip),%rdi        # 6044e8 <global_offset>
  401fdb:	e8 e9 fe ff ff       	callq  401ec9 <launch>
  401fe0:	48 8b 05 f9 24 20 00 	mov    0x2024f9(%rip),%rax        # 6044e0 <global_save_stack>
  401fe7:	48 89 c4             	mov    %rax,%rsp
  401fea:	be 00 00 10 00       	mov    $0x100000,%esi
  401fef:	48 89 df             	mov    %rbx,%rdi
  401ff2:	e8 d9 ed ff ff       	callq  400dd0 <munmap@plt>
  401ff7:	5b                   	pop    %rbx
  401ff8:	c3                   	retq   
  401ff9:	be 00 00 10 00       	mov    $0x100000,%esi
  401ffe:	48 89 c7             	mov    %rax,%rdi
  402001:	e8 ca ed ff ff       	callq  400dd0 <munmap@plt>
  402006:	b9 00 60 58 55       	mov    $0x55586000,%ecx
  40200b:	48 8d 15 06 14 00 00 	lea    0x1406(%rip),%rdx        # 403418 <_IO_stdin_used+0x5d8>
  402012:	be 01 00 00 00       	mov    $0x1,%esi
  402017:	48 8b 3d a2 24 20 00 	mov    0x2024a2(%rip),%rdi        # 6044c0 <stderr@@GLIBC_2.2.5>
  40201e:	b8 00 00 00 00       	mov    $0x0,%eax
  402023:	e8 28 ee ff ff       	callq  400e50 <__fprintf_chk@plt>
  402028:	bf 01 00 00 00       	mov    $0x1,%edi
  40202d:	e8 fe ed ff ff       	callq  400e30 <exit@plt>

0000000000402032 <rio_readinitb>:
  402032:	89 37                	mov    %esi,(%rdi)
  402034:	c7 47 04 00 00 00 00 	movl   $0x0,0x4(%rdi)
  40203b:	48 8d 47 10          	lea    0x10(%rdi),%rax
  40203f:	48 89 47 08          	mov    %rax,0x8(%rdi)
  402043:	c3                   	retq   

0000000000402044 <sigalrm_handler>:
  402044:	48 83 ec 08          	sub    $0x8,%rsp
  402048:	b9 00 00 00 00       	mov    $0x0,%ecx
  40204d:	48 8d 15 fc 13 00 00 	lea    0x13fc(%rip),%rdx        # 403450 <trans_char+0x10>
  402054:	be 01 00 00 00       	mov    $0x1,%esi
  402059:	48 8b 3d 60 24 20 00 	mov    0x202460(%rip),%rdi        # 6044c0 <stderr@@GLIBC_2.2.5>
  402060:	b8 00 00 00 00       	mov    $0x0,%eax
  402065:	e8 e6 ed ff ff       	callq  400e50 <__fprintf_chk@plt>
  40206a:	bf 01 00 00 00       	mov    $0x1,%edi
  40206f:	e8 bc ed ff ff       	callq  400e30 <exit@plt>

0000000000402074 <rio_writen>:
  402074:	41 55                	push   %r13
  402076:	41 54                	push   %r12
  402078:	55                   	push   %rbp
  402079:	53                   	push   %rbx
  40207a:	48 83 ec 08          	sub    $0x8,%rsp
  40207e:	41 89 fc             	mov    %edi,%r12d
  402081:	48 89 f5             	mov    %rsi,%rbp
  402084:	49 89 d5             	mov    %rdx,%r13
  402087:	48 89 d3             	mov    %rdx,%rbx
  40208a:	eb 06                	jmp    402092 <rio_writen+0x1e>
  40208c:	48 29 c3             	sub    %rax,%rbx
  40208f:	48 01 c5             	add    %rax,%rbp
  402092:	48 85 db             	test   %rbx,%rbx
  402095:	74 24                	je     4020bb <rio_writen+0x47>
  402097:	48 89 da             	mov    %rbx,%rdx
  40209a:	48 89 ee             	mov    %rbp,%rsi
  40209d:	44 89 e7             	mov    %r12d,%edi
  4020a0:	e8 2b ec ff ff       	callq  400cd0 <write@plt>
  4020a5:	48 85 c0             	test   %rax,%rax
  4020a8:	7f e2                	jg     40208c <rio_writen+0x18>
  4020aa:	e8 d1 eb ff ff       	callq  400c80 <__errno_location@plt>
  4020af:	83 38 04             	cmpl   $0x4,(%rax)
  4020b2:	75 15                	jne    4020c9 <rio_writen+0x55>
  4020b4:	b8 00 00 00 00       	mov    $0x0,%eax
  4020b9:	eb d1                	jmp    40208c <rio_writen+0x18>
  4020bb:	4c 89 e8             	mov    %r13,%rax
  4020be:	48 83 c4 08          	add    $0x8,%rsp
  4020c2:	5b                   	pop    %rbx
  4020c3:	5d                   	pop    %rbp
  4020c4:	41 5c                	pop    %r12
  4020c6:	41 5d                	pop    %r13
  4020c8:	c3                   	retq   
  4020c9:	48 c7 c0 ff ff ff ff 	mov    $0xffffffffffffffff,%rax
  4020d0:	eb ec                	jmp    4020be <rio_writen+0x4a>

00000000004020d2 <rio_read>:
  4020d2:	41 55                	push   %r13
  4020d4:	41 54                	push   %r12
  4020d6:	55                   	push   %rbp
  4020d7:	53                   	push   %rbx
  4020d8:	48 83 ec 08          	sub    $0x8,%rsp
  4020dc:	48 89 fb             	mov    %rdi,%rbx
  4020df:	49 89 f5             	mov    %rsi,%r13
  4020e2:	49 89 d4             	mov    %rdx,%r12
  4020e5:	eb 0a                	jmp    4020f1 <rio_read+0x1f>
  4020e7:	e8 94 eb ff ff       	callq  400c80 <__errno_location@plt>
  4020ec:	83 38 04             	cmpl   $0x4,(%rax)
  4020ef:	75 5c                	jne    40214d <rio_read+0x7b>
  4020f1:	8b 6b 04             	mov    0x4(%rbx),%ebp
  4020f4:	85 ed                	test   %ebp,%ebp
  4020f6:	7f 24                	jg     40211c <rio_read+0x4a>
  4020f8:	48 8d 6b 10          	lea    0x10(%rbx),%rbp
  4020fc:	8b 3b                	mov    (%rbx),%edi
  4020fe:	ba 00 20 00 00       	mov    $0x2000,%edx
  402103:	48 89 ee             	mov    %rbp,%rsi
  402106:	e8 25 ec ff ff       	callq  400d30 <read@plt>
  40210b:	89 43 04             	mov    %eax,0x4(%rbx)
  40210e:	85 c0                	test   %eax,%eax
  402110:	78 d5                	js     4020e7 <rio_read+0x15>
  402112:	85 c0                	test   %eax,%eax
  402114:	74 40                	je     402156 <rio_read+0x84>
  402116:	48 89 6b 08          	mov    %rbp,0x8(%rbx)
  40211a:	eb d5                	jmp    4020f1 <rio_read+0x1f>
  40211c:	89 e8                	mov    %ebp,%eax
  40211e:	4c 39 e0             	cmp    %r12,%rax
  402121:	72 03                	jb     402126 <rio_read+0x54>
  402123:	44 89 e5             	mov    %r12d,%ebp
  402126:	4c 63 e5             	movslq %ebp,%r12
  402129:	48 8b 73 08          	mov    0x8(%rbx),%rsi
  40212d:	4c 89 e2             	mov    %r12,%rdx
  402130:	4c 89 ef             	mov    %r13,%rdi
  402133:	e8 48 ec ff ff       	callq  400d80 <memcpy@plt>
  402138:	4c 01 63 08          	add    %r12,0x8(%rbx)
  40213c:	29 6b 04             	sub    %ebp,0x4(%rbx)
  40213f:	4c 89 e0             	mov    %r12,%rax
  402142:	48 83 c4 08          	add    $0x8,%rsp
  402146:	5b                   	pop    %rbx
  402147:	5d                   	pop    %rbp
  402148:	41 5c                	pop    %r12
  40214a:	41 5d                	pop    %r13
  40214c:	c3                   	retq   
  40214d:	48 c7 c0 ff ff ff ff 	mov    $0xffffffffffffffff,%rax
  402154:	eb ec                	jmp    402142 <rio_read+0x70>
  402156:	b8 00 00 00 00       	mov    $0x0,%eax
  40215b:	eb e5                	jmp    402142 <rio_read+0x70>

000000000040215d <rio_readlineb>:
  40215d:	41 55                	push   %r13
  40215f:	41 54                	push   %r12
  402161:	55                   	push   %rbp
  402162:	53                   	push   %rbx
  402163:	48 83 ec 18          	sub    $0x18,%rsp
  402167:	49 89 fd             	mov    %rdi,%r13
  40216a:	48 89 f5             	mov    %rsi,%rbp
  40216d:	49 89 d4             	mov    %rdx,%r12
  402170:	64 48 8b 04 25 28 00 	mov    %fs:0x28,%rax
  402177:	00 00 
  402179:	48 89 44 24 08       	mov    %rax,0x8(%rsp)
  40217e:	31 c0                	xor    %eax,%eax
  402180:	bb 01 00 00 00       	mov    $0x1,%ebx
  402185:	4c 39 e3             	cmp    %r12,%rbx
  402188:	73 47                	jae    4021d1 <rio_readlineb+0x74>
  40218a:	48 8d 74 24 07       	lea    0x7(%rsp),%rsi
  40218f:	ba 01 00 00 00       	mov    $0x1,%edx
  402194:	4c 89 ef             	mov    %r13,%rdi
  402197:	e8 36 ff ff ff       	callq  4020d2 <rio_read>
  40219c:	83 f8 01             	cmp    $0x1,%eax
  40219f:	75 1c                	jne    4021bd <rio_readlineb+0x60>
  4021a1:	48 8d 45 01          	lea    0x1(%rbp),%rax
  4021a5:	0f b6 54 24 07       	movzbl 0x7(%rsp),%edx
  4021aa:	88 55 00             	mov    %dl,0x0(%rbp)
  4021ad:	80 7c 24 07 0a       	cmpb   $0xa,0x7(%rsp)
  4021b2:	74 1a                	je     4021ce <rio_readlineb+0x71>
  4021b4:	48 83 c3 01          	add    $0x1,%rbx
  4021b8:	48 89 c5             	mov    %rax,%rbp
  4021bb:	eb c8                	jmp    402185 <rio_readlineb+0x28>
  4021bd:	85 c0                	test   %eax,%eax
  4021bf:	75 32                	jne    4021f3 <rio_readlineb+0x96>
  4021c1:	48 83 fb 01          	cmp    $0x1,%rbx
  4021c5:	75 0a                	jne    4021d1 <rio_readlineb+0x74>
  4021c7:	b8 00 00 00 00       	mov    $0x0,%eax
  4021cc:	eb 0a                	jmp    4021d8 <rio_readlineb+0x7b>
  4021ce:	48 89 c5             	mov    %rax,%rbp
  4021d1:	c6 45 00 00          	movb   $0x0,0x0(%rbp)
  4021d5:	48 89 d8             	mov    %rbx,%rax
  4021d8:	48 8b 4c 24 08       	mov    0x8(%rsp),%rcx
  4021dd:	64 48 33 0c 25 28 00 	xor    %fs:0x28,%rcx
  4021e4:	00 00 
  4021e6:	75 14                	jne    4021fc <rio_readlineb+0x9f>
  4021e8:	48 83 c4 18          	add    $0x18,%rsp
  4021ec:	5b                   	pop    %rbx
  4021ed:	5d                   	pop    %rbp
  4021ee:	41 5c                	pop    %r12
  4021f0:	41 5d                	pop    %r13
  4021f2:	c3                   	retq   
  4021f3:	48 c7 c0 ff ff ff ff 	mov    $0xffffffffffffffff,%rax
  4021fa:	eb dc                	jmp    4021d8 <rio_readlineb+0x7b>
  4021fc:	e8 df ea ff ff       	callq  400ce0 <__stack_chk_fail@plt>

0000000000402201 <urlencode>:
  402201:	41 54                	push   %r12
  402203:	55                   	push   %rbp
  402204:	53                   	push   %rbx
  402205:	48 83 ec 10          	sub    $0x10,%rsp
  402209:	48 89 fb             	mov    %rdi,%rbx
  40220c:	48 89 f5             	mov    %rsi,%rbp
  40220f:	64 48 8b 04 25 28 00 	mov    %fs:0x28,%rax
  402216:	00 00 
  402218:	48 89 44 24 08       	mov    %rax,0x8(%rsp)
  40221d:	31 c0                	xor    %eax,%eax
  40221f:	48 c7 c1 ff ff ff ff 	mov    $0xffffffffffffffff,%rcx
  402226:	f2 ae                	repnz scas %es:(%rdi),%al
  402228:	48 89 ce             	mov    %rcx,%rsi
  40222b:	48 f7 d6             	not    %rsi
  40222e:	8d 46 ff             	lea    -0x1(%rsi),%eax
  402231:	eb 0f                	jmp    402242 <urlencode+0x41>
  402233:	44 88 45 00          	mov    %r8b,0x0(%rbp)
  402237:	48 8d 6d 01          	lea    0x1(%rbp),%rbp
  40223b:	48 83 c3 01          	add    $0x1,%rbx
  40223f:	44 89 e0             	mov    %r12d,%eax
  402242:	44 8d 60 ff          	lea    -0x1(%rax),%r12d
  402246:	85 c0                	test   %eax,%eax
  402248:	0f 84 a8 00 00 00    	je     4022f6 <urlencode+0xf5>
  40224e:	44 0f b6 03          	movzbl (%rbx),%r8d
  402252:	41 80 f8 2a          	cmp    $0x2a,%r8b
  402256:	0f 94 c2             	sete   %dl
  402259:	41 80 f8 2d          	cmp    $0x2d,%r8b
  40225d:	0f 94 c0             	sete   %al
  402260:	08 c2                	or     %al,%dl
  402262:	75 cf                	jne    402233 <urlencode+0x32>
  402264:	41 80 f8 2e          	cmp    $0x2e,%r8b
  402268:	74 c9                	je     402233 <urlencode+0x32>
  40226a:	41 80 f8 5f          	cmp    $0x5f,%r8b
  40226e:	74 c3                	je     402233 <urlencode+0x32>
  402270:	41 8d 40 d0          	lea    -0x30(%r8),%eax
  402274:	3c 09                	cmp    $0x9,%al
  402276:	76 bb                	jbe    402233 <urlencode+0x32>
  402278:	41 8d 40 bf          	lea    -0x41(%r8),%eax
  40227c:	3c 19                	cmp    $0x19,%al
  40227e:	76 b3                	jbe    402233 <urlencode+0x32>
  402280:	41 8d 40 9f          	lea    -0x61(%r8),%eax
  402284:	3c 19                	cmp    $0x19,%al
  402286:	76 ab                	jbe    402233 <urlencode+0x32>
  402288:	41 80 f8 20          	cmp    $0x20,%r8b
  40228c:	74 56                	je     4022e4 <urlencode+0xe3>
  40228e:	41 8d 40 e0          	lea    -0x20(%r8),%eax
  402292:	3c 5f                	cmp    $0x5f,%al
  402294:	0f 96 c2             	setbe  %dl
  402297:	41 80 f8 09          	cmp    $0x9,%r8b
  40229b:	0f 94 c0             	sete   %al
  40229e:	08 c2                	or     %al,%dl
  4022a0:	74 4f                	je     4022f1 <urlencode+0xf0>
  4022a2:	48 89 e7             	mov    %rsp,%rdi
  4022a5:	45 0f b6 c0          	movzbl %r8b,%r8d
  4022a9:	48 8d 0d 38 12 00 00 	lea    0x1238(%rip),%rcx        # 4034e8 <trans_char+0xa8>
  4022b0:	ba 08 00 00 00       	mov    $0x8,%edx
  4022b5:	be 01 00 00 00       	mov    $0x1,%esi
  4022ba:	b8 00 00 00 00       	mov    $0x0,%eax
  4022bf:	e8 9c eb ff ff       	callq  400e60 <__sprintf_chk@plt>
  4022c4:	0f b6 04 24          	movzbl (%rsp),%eax
  4022c8:	88 45 00             	mov    %al,0x0(%rbp)
  4022cb:	0f b6 44 24 01       	movzbl 0x1(%rsp),%eax
  4022d0:	88 45 01             	mov    %al,0x1(%rbp)
  4022d3:	0f b6 44 24 02       	movzbl 0x2(%rsp),%eax
  4022d8:	88 45 02             	mov    %al,0x2(%rbp)
  4022db:	48 8d 6d 03          	lea    0x3(%rbp),%rbp
  4022df:	e9 57 ff ff ff       	jmpq   40223b <urlencode+0x3a>
  4022e4:	c6 45 00 2b          	movb   $0x2b,0x0(%rbp)
  4022e8:	48 8d 6d 01          	lea    0x1(%rbp),%rbp
  4022ec:	e9 4a ff ff ff       	jmpq   40223b <urlencode+0x3a>
  4022f1:	b8 ff ff ff ff       	mov    $0xffffffff,%eax
  4022f6:	48 8b 74 24 08       	mov    0x8(%rsp),%rsi
  4022fb:	64 48 33 34 25 28 00 	xor    %fs:0x28,%rsi
  402302:	00 00 
  402304:	75 09                	jne    40230f <urlencode+0x10e>
  402306:	48 83 c4 10          	add    $0x10,%rsp
  40230a:	5b                   	pop    %rbx
  40230b:	5d                   	pop    %rbp
  40230c:	41 5c                	pop    %r12
  40230e:	c3                   	retq   
  40230f:	e8 cc e9 ff ff       	callq  400ce0 <__stack_chk_fail@plt>

0000000000402314 <submitr>:
  402314:	41 57                	push   %r15
  402316:	41 56                	push   %r14
  402318:	41 55                	push   %r13
  40231a:	41 54                	push   %r12
  40231c:	55                   	push   %rbp
  40231d:	53                   	push   %rbx
  40231e:	48 81 ec 68 a0 00 00 	sub    $0xa068,%rsp
  402325:	49 89 fd             	mov    %rdi,%r13
  402328:	89 74 24 14          	mov    %esi,0x14(%rsp)
  40232c:	49 89 d7             	mov    %rdx,%r15
  40232f:	48 89 4c 24 08       	mov    %rcx,0x8(%rsp)
  402334:	4c 89 44 24 18       	mov    %r8,0x18(%rsp)
  402339:	4d 89 ce             	mov    %r9,%r14
  40233c:	48 8b ac 24 a0 a0 00 	mov    0xa0a0(%rsp),%rbp
  402343:	00 
  402344:	64 48 8b 04 25 28 00 	mov    %fs:0x28,%rax
  40234b:	00 00 
  40234d:	48 89 84 24 58 a0 00 	mov    %rax,0xa058(%rsp)
  402354:	00 
  402355:	31 c0                	xor    %eax,%eax
  402357:	c7 44 24 2c 00 00 00 	movl   $0x0,0x2c(%rsp)
  40235e:	00 
  40235f:	ba 00 00 00 00       	mov    $0x0,%edx
  402364:	be 01 00 00 00       	mov    $0x1,%esi
  402369:	bf 02 00 00 00       	mov    $0x2,%edi
  40236e:	e8 fd ea ff ff       	callq  400e70 <socket@plt>
  402373:	85 c0                	test   %eax,%eax
  402375:	0f 88 a9 02 00 00    	js     402624 <submitr+0x310>
  40237b:	89 c3                	mov    %eax,%ebx
  40237d:	4c 89 ef             	mov    %r13,%rdi
  402380:	e8 cb e9 ff ff       	callq  400d50 <gethostbyname@plt>
  402385:	48 85 c0             	test   %rax,%rax
  402388:	0f 84 e2 02 00 00    	je     402670 <submitr+0x35c>
  40238e:	4c 8d 64 24 30       	lea    0x30(%rsp),%r12
  402393:	48 c7 44 24 32 00 00 	movq   $0x0,0x32(%rsp)
  40239a:	00 00 
  40239c:	c7 44 24 3a 00 00 00 	movl   $0x0,0x3a(%rsp)
  4023a3:	00 
  4023a4:	66 c7 44 24 3e 00 00 	movw   $0x0,0x3e(%rsp)
  4023ab:	66 c7 44 24 30 02 00 	movw   $0x2,0x30(%rsp)
  4023b2:	48 63 50 14          	movslq 0x14(%rax),%rdx
  4023b6:	48 8b 40 18          	mov    0x18(%rax),%rax
  4023ba:	48 8b 30             	mov    (%rax),%rsi
  4023bd:	48 8d 7c 24 34       	lea    0x34(%rsp),%rdi
  4023c2:	b9 0c 00 00 00       	mov    $0xc,%ecx
  4023c7:	e8 94 e9 ff ff       	callq  400d60 <__memmove_chk@plt>
  4023cc:	0f b7 44 24 14       	movzwl 0x14(%rsp),%eax
  4023d1:	66 c1 c8 08          	ror    $0x8,%ax
  4023d5:	66 89 44 24 32       	mov    %ax,0x32(%rsp)
  4023da:	ba 10 00 00 00       	mov    $0x10,%edx
  4023df:	4c 89 e6             	mov    %r12,%rsi
  4023e2:	89 df                	mov    %ebx,%edi
  4023e4:	e8 57 ea ff ff       	callq  400e40 <connect@plt>
  4023e9:	85 c0                	test   %eax,%eax
  4023eb:	0f 88 e7 02 00 00    	js     4026d8 <submitr+0x3c4>
  4023f1:	48 c7 c6 ff ff ff ff 	mov    $0xffffffffffffffff,%rsi
  4023f8:	b8 00 00 00 00       	mov    $0x0,%eax
  4023fd:	48 89 f1             	mov    %rsi,%rcx
  402400:	4c 89 f7             	mov    %r14,%rdi
  402403:	f2 ae                	repnz scas %es:(%rdi),%al
  402405:	48 89 ca             	mov    %rcx,%rdx
  402408:	48 f7 d2             	not    %rdx
  40240b:	48 89 f1             	mov    %rsi,%rcx
  40240e:	4c 89 ff             	mov    %r15,%rdi
  402411:	f2 ae                	repnz scas %es:(%rdi),%al
  402413:	48 f7 d1             	not    %rcx
  402416:	49 89 c8             	mov    %rcx,%r8
  402419:	48 89 f1             	mov    %rsi,%rcx
  40241c:	48 8b 7c 24 08       	mov    0x8(%rsp),%rdi
  402421:	f2 ae                	repnz scas %es:(%rdi),%al
  402423:	48 f7 d1             	not    %rcx
  402426:	4d 8d 44 08 fe       	lea    -0x2(%r8,%rcx,1),%r8
  40242b:	48 89 f1             	mov    %rsi,%rcx
  40242e:	48 8b 7c 24 18       	mov    0x18(%rsp),%rdi
  402433:	f2 ae                	repnz scas %es:(%rdi),%al
  402435:	48 89 c8             	mov    %rcx,%rax
  402438:	48 f7 d0             	not    %rax
  40243b:	49 8d 4c 00 ff       	lea    -0x1(%r8,%rax,1),%rcx
  402440:	48 8d 44 52 fd       	lea    -0x3(%rdx,%rdx,2),%rax
  402445:	48 8d 84 01 80 00 00 	lea    0x80(%rcx,%rax,1),%rax
  40244c:	00 
  40244d:	48 3d 00 20 00 00    	cmp    $0x2000,%rax
  402453:	0f 87 d9 02 00 00    	ja     402732 <submitr+0x41e>
  402459:	48 8d b4 24 50 40 00 	lea    0x4050(%rsp),%rsi
  402460:	00 
  402461:	b9 00 04 00 00       	mov    $0x400,%ecx
  402466:	b8 00 00 00 00       	mov    $0x0,%eax
  40246b:	48 89 f7             	mov    %rsi,%rdi
  40246e:	f3 48 ab             	rep stos %rax,%es:(%rdi)
  402471:	4c 89 f7             	mov    %r14,%rdi
  402474:	e8 88 fd ff ff       	callq  402201 <urlencode>
  402479:	85 c0                	test   %eax,%eax
  40247b:	0f 88 24 03 00 00    	js     4027a5 <submitr+0x491>
  402481:	4c 8d a4 24 50 20 00 	lea    0x2050(%rsp),%r12
  402488:	00 
  402489:	41 55                	push   %r13
  40248b:	48 8d 84 24 58 40 00 	lea    0x4058(%rsp),%rax
  402492:	00 
  402493:	50                   	push   %rax
  402494:	4d 89 f9             	mov    %r15,%r9
  402497:	4c 8b 44 24 18       	mov    0x18(%rsp),%r8
  40249c:	48 8d 0d d5 0f 00 00 	lea    0xfd5(%rip),%rcx        # 403478 <trans_char+0x38>
  4024a3:	ba 00 20 00 00       	mov    $0x2000,%edx
  4024a8:	be 01 00 00 00       	mov    $0x1,%esi
  4024ad:	4c 89 e7             	mov    %r12,%rdi
  4024b0:	b8 00 00 00 00       	mov    $0x0,%eax
  4024b5:	e8 a6 e9 ff ff       	callq  400e60 <__sprintf_chk@plt>
  4024ba:	48 c7 c1 ff ff ff ff 	mov    $0xffffffffffffffff,%rcx
  4024c1:	b8 00 00 00 00       	mov    $0x0,%eax
  4024c6:	4c 89 e7             	mov    %r12,%rdi
  4024c9:	f2 ae                	repnz scas %es:(%rdi),%al
  4024cb:	48 89 ca             	mov    %rcx,%rdx
  4024ce:	48 f7 d2             	not    %rdx
  4024d1:	48 8d 52 ff          	lea    -0x1(%rdx),%rdx
  4024d5:	4c 89 e6             	mov    %r12,%rsi
  4024d8:	89 df                	mov    %ebx,%edi
  4024da:	e8 95 fb ff ff       	callq  402074 <rio_writen>
  4024df:	48 83 c4 10          	add    $0x10,%rsp
  4024e3:	48 85 c0             	test   %rax,%rax
  4024e6:	0f 88 44 03 00 00    	js     402830 <submitr+0x51c>
  4024ec:	4c 8d 64 24 40       	lea    0x40(%rsp),%r12
  4024f1:	89 de                	mov    %ebx,%esi
  4024f3:	4c 89 e7             	mov    %r12,%rdi
  4024f6:	e8 37 fb ff ff       	callq  402032 <rio_readinitb>
  4024fb:	48 8d b4 24 50 20 00 	lea    0x2050(%rsp),%rsi
  402502:	00 
  402503:	ba 00 20 00 00       	mov    $0x2000,%edx
  402508:	4c 89 e7             	mov    %r12,%rdi
  40250b:	e8 4d fc ff ff       	callq  40215d <rio_readlineb>
  402510:	48 85 c0             	test   %rax,%rax
  402513:	0f 8e 86 03 00 00    	jle    40289f <submitr+0x58b>
  402519:	48 8d 4c 24 2c       	lea    0x2c(%rsp),%rcx
  40251e:	48 8d 94 24 50 60 00 	lea    0x6050(%rsp),%rdx
  402525:	00 
  402526:	48 8d bc 24 50 20 00 	lea    0x2050(%rsp),%rdi
  40252d:	00 
  40252e:	4c 8d 84 24 50 80 00 	lea    0x8050(%rsp),%r8
  402535:	00 
  402536:	48 8d 35 b2 0f 00 00 	lea    0xfb2(%rip),%rsi        # 4034ef <trans_char+0xaf>
  40253d:	b8 00 00 00 00       	mov    $0x0,%eax
  402542:	e8 79 e8 ff ff       	callq  400dc0 <__isoc99_sscanf@plt>
  402547:	48 8d b4 24 50 20 00 	lea    0x2050(%rsp),%rsi
  40254e:	00 
  40254f:	b9 03 00 00 00       	mov    $0x3,%ecx
  402554:	48 8d 3d ab 0f 00 00 	lea    0xfab(%rip),%rdi        # 403506 <trans_char+0xc6>
  40255b:	f3 a6                	repz cmpsb %es:(%rdi),%ds:(%rsi)
  40255d:	0f 97 c0             	seta   %al
  402560:	1c 00                	sbb    $0x0,%al
  402562:	84 c0                	test   %al,%al
  402564:	0f 84 b3 03 00 00    	je     40291d <submitr+0x609>
  40256a:	48 8d b4 24 50 20 00 	lea    0x2050(%rsp),%rsi
  402571:	00 
  402572:	48 8d 7c 24 40       	lea    0x40(%rsp),%rdi
  402577:	ba 00 20 00 00       	mov    $0x2000,%edx
  40257c:	e8 dc fb ff ff       	callq  40215d <rio_readlineb>
  402581:	48 85 c0             	test   %rax,%rax
  402584:	7f c1                	jg     402547 <submitr+0x233>
  402586:	48 b8 45 72 72 6f 72 	movabs $0x43203a726f727245,%rax
  40258d:	3a 20 43 
  402590:	48 ba 6c 69 65 6e 74 	movabs $0x6e7520746e65696c,%rdx
  402597:	20 75 6e 
  40259a:	48 89 45 00          	mov    %rax,0x0(%rbp)
  40259e:	48 89 55 08          	mov    %rdx,0x8(%rbp)
  4025a2:	48 b8 61 62 6c 65 20 	movabs $0x206f7420656c6261,%rax
  4025a9:	74 6f 20 
  4025ac:	48 ba 72 65 61 64 20 	movabs $0x6165682064616572,%rdx
  4025b3:	68 65 61 
  4025b6:	48 89 45 10          	mov    %rax,0x10(%rbp)
  4025ba:	48 89 55 18          	mov    %rdx,0x18(%rbp)
  4025be:	48 b8 64 65 72 73 20 	movabs $0x6f72662073726564,%rax
  4025c5:	66 72 6f 
  4025c8:	48 ba 6d 20 74 68 65 	movabs $0x657220656874206d,%rdx
  4025cf:	20 72 65 
  4025d2:	48 89 45 20          	mov    %rax,0x20(%rbp)
  4025d6:	48 89 55 28          	mov    %rdx,0x28(%rbp)
  4025da:	48 b8 73 75 6c 74 20 	movabs $0x72657320746c7573,%rax
  4025e1:	73 65 72 
  4025e4:	48 89 45 30          	mov    %rax,0x30(%rbp)
  4025e8:	c7 45 38 76 65 72 00 	movl   $0x726576,0x38(%rbp)
  4025ef:	89 df                	mov    %ebx,%edi
  4025f1:	e8 2a e7 ff ff       	callq  400d20 <close@plt>
  4025f6:	b8 ff ff ff ff       	mov    $0xffffffff,%eax
  4025fb:	48 8b 9c 24 58 a0 00 	mov    0xa058(%rsp),%rbx
  402602:	00 
  402603:	64 48 33 1c 25 28 00 	xor    %fs:0x28,%rbx
  40260a:	00 00 
  40260c:	0f 85 7e 04 00 00    	jne    402a90 <submitr+0x77c>
  402612:	48 81 c4 68 a0 00 00 	add    $0xa068,%rsp
  402619:	5b                   	pop    %rbx
  40261a:	5d                   	pop    %rbp
  40261b:	41 5c                	pop    %r12
  40261d:	41 5d                	pop    %r13
  40261f:	41 5e                	pop    %r14
  402621:	41 5f                	pop    %r15
  402623:	c3                   	retq   
  402624:	48 b8 45 72 72 6f 72 	movabs $0x43203a726f727245,%rax
  40262b:	3a 20 43 
  40262e:	48 ba 6c 69 65 6e 74 	movabs $0x6e7520746e65696c,%rdx
  402635:	20 75 6e 
  402638:	48 89 45 00          	mov    %rax,0x0(%rbp)
  40263c:	48 89 55 08          	mov    %rdx,0x8(%rbp)
  402640:	48 b8 61 62 6c 65 20 	movabs $0x206f7420656c6261,%rax
  402647:	74 6f 20 
  40264a:	48 ba 63 72 65 61 74 	movabs $0x7320657461657263,%rdx
  402651:	65 20 73 
  402654:	48 89 45 10          	mov    %rax,0x10(%rbp)
  402658:	48 89 55 18          	mov    %rdx,0x18(%rbp)
  40265c:	c7 45 20 6f 63 6b 65 	movl   $0x656b636f,0x20(%rbp)
  402663:	66 c7 45 24 74 00    	movw   $0x74,0x24(%rbp)
  402669:	b8 ff ff ff ff       	mov    $0xffffffff,%eax
  40266e:	eb 8b                	jmp    4025fb <submitr+0x2e7>
  402670:	48 b8 45 72 72 6f 72 	movabs $0x44203a726f727245,%rax
  402677:	3a 20 44 
  40267a:	48 ba 4e 53 20 69 73 	movabs $0x6e7520736920534e,%rdx
  402681:	20 75 6e 
  402684:	48 89 45 00          	mov    %rax,0x0(%rbp)
  402688:	48 89 55 08          	mov    %rdx,0x8(%rbp)
  40268c:	48 b8 61 62 6c 65 20 	movabs $0x206f7420656c6261,%rax
  402693:	74 6f 20 
  402696:	48 ba 72 65 73 6f 6c 	movabs $0x2065766c6f736572,%rdx
  40269d:	76 65 20 
  4026a0:	48 89 45 10          	mov    %rax,0x10(%rbp)
  4026a4:	48 89 55 18          	mov    %rdx,0x18(%rbp)
  4026a8:	48 b8 73 65 72 76 65 	movabs $0x6120726576726573,%rax
  4026af:	72 20 61 
  4026b2:	48 89 45 20          	mov    %rax,0x20(%rbp)
  4026b6:	c7 45 28 64 64 72 65 	movl   $0x65726464,0x28(%rbp)
  4026bd:	66 c7 45 2c 73 73    	movw   $0x7373,0x2c(%rbp)
  4026c3:	c6 45 2e 00          	movb   $0x0,0x2e(%rbp)
  4026c7:	89 df                	mov    %ebx,%edi
  4026c9:	e8 52 e6 ff ff       	callq  400d20 <close@plt>
  4026ce:	b8 ff ff ff ff       	mov    $0xffffffff,%eax
  4026d3:	e9 23 ff ff ff       	jmpq   4025fb <submitr+0x2e7>
  4026d8:	48 b8 45 72 72 6f 72 	movabs $0x55203a726f727245,%rax
  4026df:	3a 20 55 
  4026e2:	48 ba 6e 61 62 6c 65 	movabs $0x6f7420656c62616e,%rdx
  4026e9:	20 74 6f 
  4026ec:	48 89 45 00          	mov    %rax,0x0(%rbp)
  4026f0:	48 89 55 08          	mov    %rdx,0x8(%rbp)
  4026f4:	48 b8 20 63 6f 6e 6e 	movabs $0x7463656e6e6f6320,%rax
  4026fb:	65 63 74 
  4026fe:	48 ba 20 74 6f 20 74 	movabs $0x20656874206f7420,%rdx
  402705:	68 65 20 
  402708:	48 89 45 10          	mov    %rax,0x10(%rbp)
  40270c:	48 89 55 18          	mov    %rdx,0x18(%rbp)
  402710:	c7 45 20 73 65 72 76 	movl   $0x76726573,0x20(%rbp)
  402717:	66 c7 45 24 65 72    	movw   $0x7265,0x24(%rbp)
  40271d:	c6 45 26 00          	movb   $0x0,0x26(%rbp)
  402721:	89 df                	mov    %ebx,%edi
  402723:	e8 f8 e5 ff ff       	callq  400d20 <close@plt>
  402728:	b8 ff ff ff ff       	mov    $0xffffffff,%eax
  40272d:	e9 c9 fe ff ff       	jmpq   4025fb <submitr+0x2e7>
  402732:	48 b8 45 72 72 6f 72 	movabs $0x52203a726f727245,%rax
  402739:	3a 20 52 
  40273c:	48 ba 65 73 75 6c 74 	movabs $0x747320746c757365,%rdx
  402743:	20 73 74 
  402746:	48 89 45 00          	mov    %rax,0x0(%rbp)
  40274a:	48 89 55 08          	mov    %rdx,0x8(%rbp)
  40274e:	48 b8 72 69 6e 67 20 	movabs $0x6f6f7420676e6972,%rax
  402755:	74 6f 6f 
  402758:	48 ba 20 6c 61 72 67 	movabs $0x202e656772616c20,%rdx
  40275f:	65 2e 20 
  402762:	48 89 45 10          	mov    %rax,0x10(%rbp)
  402766:	48 89 55 18          	mov    %rdx,0x18(%rbp)
  40276a:	48 b8 49 6e 63 72 65 	movabs $0x6573616572636e49,%rax
  402771:	61 73 65 
  402774:	48 ba 20 53 55 42 4d 	movabs $0x5254494d42555320,%rdx
  40277b:	49 54 52 
  40277e:	48 89 45 20          	mov    %rax,0x20(%rbp)
  402782:	48 89 55 28          	mov    %rdx,0x28(%rbp)
  402786:	48 b8 5f 4d 41 58 42 	movabs $0x46554258414d5f,%rax
  40278d:	55 46 00 
  402790:	48 89 45 30          	mov    %rax,0x30(%rbp)
  402794:	89 df                	mov    %ebx,%edi
  402796:	e8 85 e5 ff ff       	callq  400d20 <close@plt>
  40279b:	b8 ff ff ff ff       	mov    $0xffffffff,%eax
  4027a0:	e9 56 fe ff ff       	jmpq   4025fb <submitr+0x2e7>
  4027a5:	48 b8 45 72 72 6f 72 	movabs $0x52203a726f727245,%rax
  4027ac:	3a 20 52 
  4027af:	48 ba 65 73 75 6c 74 	movabs $0x747320746c757365,%rdx
  4027b6:	20 73 74 
  4027b9:	48 89 45 00          	mov    %rax,0x0(%rbp)
  4027bd:	48 89 55 08          	mov    %rdx,0x8(%rbp)
  4027c1:	48 b8 72 69 6e 67 20 	movabs $0x6e6f6320676e6972,%rax
  4027c8:	63 6f 6e 
  4027cb:	48 ba 74 61 69 6e 73 	movabs $0x6e6120736e696174,%rdx
  4027d2:	20 61 6e 
  4027d5:	48 89 45 10          	mov    %rax,0x10(%rbp)
  4027d9:	48 89 55 18          	mov    %rdx,0x18(%rbp)
  4027dd:	48 b8 20 69 6c 6c 65 	movabs $0x6c6167656c6c6920,%rax
  4027e4:	67 61 6c 
  4027e7:	48 ba 20 6f 72 20 75 	movabs $0x72706e7520726f20,%rdx
  4027ee:	6e 70 72 
  4027f1:	48 89 45 20          	mov    %rax,0x20(%rbp)
  4027f5:	48 89 55 28          	mov    %rdx,0x28(%rbp)
  4027f9:	48 b8 69 6e 74 61 62 	movabs $0x20656c6261746e69,%rax
  402800:	6c 65 20 
  402803:	48 ba 63 68 61 72 61 	movabs $0x6574636172616863,%rdx
  40280a:	63 74 65 
  40280d:	48 89 45 30          	mov    %rax,0x30(%rbp)
  402811:	48 89 55 38          	mov    %rdx,0x38(%rbp)
  402815:	66 c7 45 40 72 2e    	movw   $0x2e72,0x40(%rbp)
  40281b:	c6 45 42 00          	movb   $0x0,0x42(%rbp)
  40281f:	89 df                	mov    %ebx,%edi
  402821:	e8 fa e4 ff ff       	callq  400d20 <close@plt>
  402826:	b8 ff ff ff ff       	mov    $0xffffffff,%eax
  40282b:	e9 cb fd ff ff       	jmpq   4025fb <submitr+0x2e7>
  402830:	48 b8 45 72 72 6f 72 	movabs $0x43203a726f727245,%rax
  402837:	3a 20 43 
  40283a:	48 ba 6c 69 65 6e 74 	movabs $0x6e7520746e65696c,%rdx
  402841:	20 75 6e 
  402844:	48 89 45 00          	mov    %rax,0x0(%rbp)
  402848:	48 89 55 08          	mov    %rdx,0x8(%rbp)
  40284c:	48 b8 61 62 6c 65 20 	movabs $0x206f7420656c6261,%rax
  402853:	74 6f 20 
  402856:	48 ba 77 72 69 74 65 	movabs $0x6f74206574697277,%rdx
  40285d:	20 74 6f 
  402860:	48 89 45 10          	mov    %rax,0x10(%rbp)
  402864:	48 89 55 18          	mov    %rdx,0x18(%rbp)
  402868:	48 b8 20 74 68 65 20 	movabs $0x7365722065687420,%rax
  40286f:	72 65 73 
  402872:	48 ba 75 6c 74 20 73 	movabs $0x7672657320746c75,%rdx
  402879:	65 72 76 
  40287c:	48 89 45 20          	mov    %rax,0x20(%rbp)
  402880:	48 89 55 28          	mov    %rdx,0x28(%rbp)
  402884:	66 c7 45 30 65 72    	movw   $0x7265,0x30(%rbp)
  40288a:	c6 45 32 00          	movb   $0x0,0x32(%rbp)
  40288e:	89 df                	mov    %ebx,%edi
  402890:	e8 8b e4 ff ff       	callq  400d20 <close@plt>
  402895:	b8 ff ff ff ff       	mov    $0xffffffff,%eax
  40289a:	e9 5c fd ff ff       	jmpq   4025fb <submitr+0x2e7>
  40289f:	48 b8 45 72 72 6f 72 	movabs $0x43203a726f727245,%rax
  4028a6:	3a 20 43 
  4028a9:	48 ba 6c 69 65 6e 74 	movabs $0x6e7520746e65696c,%rdx
  4028b0:	20 75 6e 
  4028b3:	48 89 45 00          	mov    %rax,0x0(%rbp)
  4028b7:	48 89 55 08          	mov    %rdx,0x8(%rbp)
  4028bb:	48 b8 61 62 6c 65 20 	movabs $0x206f7420656c6261,%rax
  4028c2:	74 6f 20 
  4028c5:	48 ba 72 65 61 64 20 	movabs $0x7269662064616572,%rdx
  4028cc:	66 69 72 
  4028cf:	48 89 45 10          	mov    %rax,0x10(%rbp)
  4028d3:	48 89 55 18          	mov    %rdx,0x18(%rbp)
  4028d7:	48 b8 73 74 20 68 65 	movabs $0x6564616568207473,%rax
  4028de:	61 64 65 
  4028e1:	48 ba 72 20 66 72 6f 	movabs $0x72206d6f72662072,%rdx
  4028e8:	6d 20 72 
  4028eb:	48 89 45 20          	mov    %rax,0x20(%rbp)
  4028ef:	48 89 55 28          	mov    %rdx,0x28(%rbp)
  4028f3:	48 b8 65 73 75 6c 74 	movabs $0x657320746c757365,%rax
  4028fa:	20 73 65 
  4028fd:	48 89 45 30          	mov    %rax,0x30(%rbp)
  402901:	c7 45 38 72 76 65 72 	movl   $0x72657672,0x38(%rbp)
  402908:	c6 45 3c 00          	movb   $0x0,0x3c(%rbp)
  40290c:	89 df                	mov    %ebx,%edi
  40290e:	e8 0d e4 ff ff       	callq  400d20 <close@plt>
  402913:	b8 ff ff ff ff       	mov    $0xffffffff,%eax
  402918:	e9 de fc ff ff       	jmpq   4025fb <submitr+0x2e7>
  40291d:	48 8d b4 24 50 20 00 	lea    0x2050(%rsp),%rsi
  402924:	00 
  402925:	48 8d 7c 24 40       	lea    0x40(%rsp),%rdi
  40292a:	ba 00 20 00 00       	mov    $0x2000,%edx
  40292f:	e8 29 f8 ff ff       	callq  40215d <rio_readlineb>
  402934:	48 85 c0             	test   %rax,%rax
  402937:	0f 8e 96 00 00 00    	jle    4029d3 <submitr+0x6bf>
  40293d:	44 8b 44 24 2c       	mov    0x2c(%rsp),%r8d
  402942:	41 81 f8 c8 00 00 00 	cmp    $0xc8,%r8d
  402949:	0f 85 08 01 00 00    	jne    402a57 <submitr+0x743>
  40294f:	48 8d b4 24 50 20 00 	lea    0x2050(%rsp),%rsi
  402956:	00 
  402957:	48 89 ef             	mov    %rbp,%rdi
  40295a:	e8 51 e3 ff ff       	callq  400cb0 <strcpy@plt>
  40295f:	89 df                	mov    %ebx,%edi
  402961:	e8 ba e3 ff ff       	callq  400d20 <close@plt>
  402966:	b9 04 00 00 00       	mov    $0x4,%ecx
  40296b:	48 8d 3d 8e 0b 00 00 	lea    0xb8e(%rip),%rdi        # 403500 <trans_char+0xc0>
  402972:	48 89 ee             	mov    %rbp,%rsi
  402975:	f3 a6                	repz cmpsb %es:(%rdi),%ds:(%rsi)
  402977:	0f 97 c0             	seta   %al
  40297a:	1c 00                	sbb    $0x0,%al
  40297c:	0f be c0             	movsbl %al,%eax
  40297f:	85 c0                	test   %eax,%eax
  402981:	0f 84 74 fc ff ff    	je     4025fb <submitr+0x2e7>
  402987:	b9 05 00 00 00       	mov    $0x5,%ecx
  40298c:	48 8d 3d 71 0b 00 00 	lea    0xb71(%rip),%rdi        # 403504 <trans_char+0xc4>
  402993:	48 89 ee             	mov    %rbp,%rsi
  402996:	f3 a6                	repz cmpsb %es:(%rdi),%ds:(%rsi)
  402998:	0f 97 c0             	seta   %al
  40299b:	1c 00                	sbb    $0x0,%al
  40299d:	0f be c0             	movsbl %al,%eax
  4029a0:	85 c0                	test   %eax,%eax
  4029a2:	0f 84 53 fc ff ff    	je     4025fb <submitr+0x2e7>
  4029a8:	b9 03 00 00 00       	mov    $0x3,%ecx
  4029ad:	48 8d 3d 55 0b 00 00 	lea    0xb55(%rip),%rdi        # 403509 <trans_char+0xc9>
  4029b4:	48 89 ee             	mov    %rbp,%rsi
  4029b7:	f3 a6                	repz cmpsb %es:(%rdi),%ds:(%rsi)
  4029b9:	0f 97 c0             	seta   %al
  4029bc:	1c 00                	sbb    $0x0,%al
  4029be:	0f be c0             	movsbl %al,%eax
  4029c1:	85 c0                	test   %eax,%eax
  4029c3:	0f 84 32 fc ff ff    	je     4025fb <submitr+0x2e7>
  4029c9:	b8 ff ff ff ff       	mov    $0xffffffff,%eax
  4029ce:	e9 28 fc ff ff       	jmpq   4025fb <submitr+0x2e7>
  4029d3:	48 b8 45 72 72 6f 72 	movabs $0x43203a726f727245,%rax
  4029da:	3a 20 43 
  4029dd:	48 ba 6c 69 65 6e 74 	movabs $0x6e7520746e65696c,%rdx
  4029e4:	20 75 6e 
  4029e7:	48 89 45 00          	mov    %rax,0x0(%rbp)
  4029eb:	48 89 55 08          	mov    %rdx,0x8(%rbp)
  4029ef:	48 b8 61 62 6c 65 20 	movabs $0x206f7420656c6261,%rax
  4029f6:	74 6f 20 
  4029f9:	48 ba 72 65 61 64 20 	movabs $0x6174732064616572,%rdx
  402a00:	73 74 61 
  402a03:	48 89 45 10          	mov    %rax,0x10(%rbp)
  402a07:	48 89 55 18          	mov    %rdx,0x18(%rbp)
  402a0b:	48 b8 74 75 73 20 6d 	movabs $0x7373656d20737574,%rax
  402a12:	65 73 73 
  402a15:	48 ba 61 67 65 20 66 	movabs $0x6d6f726620656761,%rdx
  402a1c:	72 6f 6d 
  402a1f:	48 89 45 20          	mov    %rax,0x20(%rbp)
  402a23:	48 89 55 28          	mov    %rdx,0x28(%rbp)
  402a27:	48 b8 20 72 65 73 75 	movabs $0x20746c7573657220,%rax
  402a2e:	6c 74 20 
  402a31:	48 89 45 30          	mov    %rax,0x30(%rbp)
  402a35:	c7 45 38 73 65 72 76 	movl   $0x76726573,0x38(%rbp)
  402a3c:	66 c7 45 3c 65 72    	movw   $0x7265,0x3c(%rbp)
  402a42:	c6 45 3e 00          	movb   $0x0,0x3e(%rbp)
  402a46:	89 df                	mov    %ebx,%edi
  402a48:	e8 d3 e2 ff ff       	callq  400d20 <close@plt>
  402a4d:	b8 ff ff ff ff       	mov    $0xffffffff,%eax
  402a52:	e9 a4 fb ff ff       	jmpq   4025fb <submitr+0x2e7>
  402a57:	4c 8d 8c 24 50 80 00 	lea    0x8050(%rsp),%r9
  402a5e:	00 
  402a5f:	48 8d 0d 52 0a 00 00 	lea    0xa52(%rip),%rcx        # 4034b8 <trans_char+0x78>
  402a66:	48 c7 c2 ff ff ff ff 	mov    $0xffffffffffffffff,%rdx
  402a6d:	be 01 00 00 00       	mov    $0x1,%esi
  402a72:	48 89 ef             	mov    %rbp,%rdi
  402a75:	b8 00 00 00 00       	mov    $0x0,%eax
  402a7a:	e8 e1 e3 ff ff       	callq  400e60 <__sprintf_chk@plt>
  402a7f:	89 df                	mov    %ebx,%edi
  402a81:	e8 9a e2 ff ff       	callq  400d20 <close@plt>
  402a86:	b8 ff ff ff ff       	mov    $0xffffffff,%eax
  402a8b:	e9 6b fb ff ff       	jmpq   4025fb <submitr+0x2e7>
  402a90:	e8 4b e2 ff ff       	callq  400ce0 <__stack_chk_fail@plt>

0000000000402a95 <init_timeout>:
  402a95:	85 ff                	test   %edi,%edi
  402a97:	74 28                	je     402ac1 <init_timeout+0x2c>
  402a99:	53                   	push   %rbx
  402a9a:	89 fb                	mov    %edi,%ebx
  402a9c:	85 ff                	test   %edi,%edi
  402a9e:	78 1a                	js     402aba <init_timeout+0x25>
  402aa0:	48 8d 35 9d f5 ff ff 	lea    -0xa63(%rip),%rsi        # 402044 <sigalrm_handler>
  402aa7:	bf 0e 00 00 00       	mov    $0xe,%edi
  402aac:	e8 8f e2 ff ff       	callq  400d40 <signal@plt>
  402ab1:	89 df                	mov    %ebx,%edi
  402ab3:	e8 58 e2 ff ff       	callq  400d10 <alarm@plt>
  402ab8:	5b                   	pop    %rbx
  402ab9:	c3                   	retq   
  402aba:	bb 00 00 00 00       	mov    $0x0,%ebx
  402abf:	eb df                	jmp    402aa0 <init_timeout+0xb>
  402ac1:	f3 c3                	repz retq 

0000000000402ac3 <init_driver>:
  402ac3:	41 54                	push   %r12
  402ac5:	55                   	push   %rbp
  402ac6:	53                   	push   %rbx
  402ac7:	48 83 ec 20          	sub    $0x20,%rsp
  402acb:	49 89 fc             	mov    %rdi,%r12
  402ace:	64 48 8b 04 25 28 00 	mov    %fs:0x28,%rax
  402ad5:	00 00 
  402ad7:	48 89 44 24 18       	mov    %rax,0x18(%rsp)
  402adc:	31 c0                	xor    %eax,%eax
  402ade:	be 01 00 00 00       	mov    $0x1,%esi
  402ae3:	bf 0d 00 00 00       	mov    $0xd,%edi
  402ae8:	e8 53 e2 ff ff       	callq  400d40 <signal@plt>
  402aed:	be 01 00 00 00       	mov    $0x1,%esi
  402af2:	bf 1d 00 00 00       	mov    $0x1d,%edi
  402af7:	e8 44 e2 ff ff       	callq  400d40 <signal@plt>
  402afc:	be 01 00 00 00       	mov    $0x1,%esi
  402b01:	bf 1d 00 00 00       	mov    $0x1d,%edi
  402b06:	e8 35 e2 ff ff       	callq  400d40 <signal@plt>
  402b0b:	ba 00 00 00 00       	mov    $0x0,%edx
  402b10:	be 01 00 00 00       	mov    $0x1,%esi
  402b15:	bf 02 00 00 00       	mov    $0x2,%edi
  402b1a:	e8 51 e3 ff ff       	callq  400e70 <socket@plt>
  402b1f:	85 c0                	test   %eax,%eax
  402b21:	0f 88 a3 00 00 00    	js     402bca <init_driver+0x107>
  402b27:	89 c3                	mov    %eax,%ebx
  402b29:	48 8d 3d dc 09 00 00 	lea    0x9dc(%rip),%rdi        # 40350c <trans_char+0xcc>
  402b30:	e8 1b e2 ff ff       	callq  400d50 <gethostbyname@plt>
  402b35:	48 85 c0             	test   %rax,%rax
  402b38:	0f 84 df 00 00 00    	je     402c1d <init_driver+0x15a>
  402b3e:	48 89 e5             	mov    %rsp,%rbp
  402b41:	48 c7 44 24 02 00 00 	movq   $0x0,0x2(%rsp)
  402b48:	00 00 
  402b4a:	c7 45 0a 00 00 00 00 	movl   $0x0,0xa(%rbp)
  402b51:	66 c7 45 0e 00 00    	movw   $0x0,0xe(%rbp)
  402b57:	66 c7 04 24 02 00    	movw   $0x2,(%rsp)
  402b5d:	48 63 50 14          	movslq 0x14(%rax),%rdx
  402b61:	48 8b 40 18          	mov    0x18(%rax),%rax
  402b65:	48 8b 30             	mov    (%rax),%rsi
  402b68:	48 8d 7d 04          	lea    0x4(%rbp),%rdi
  402b6c:	b9 0c 00 00 00       	mov    $0xc,%ecx
  402b71:	e8 ea e1 ff ff       	callq  400d60 <__memmove_chk@plt>
  402b76:	66 c7 44 24 02 3c 9a 	movw   $0x9a3c,0x2(%rsp)
  402b7d:	ba 10 00 00 00       	mov    $0x10,%edx
  402b82:	48 89 ee             	mov    %rbp,%rsi
  402b85:	89 df                	mov    %ebx,%edi
  402b87:	e8 b4 e2 ff ff       	callq  400e40 <connect@plt>
  402b8c:	85 c0                	test   %eax,%eax
  402b8e:	0f 88 fb 00 00 00    	js     402c8f <init_driver+0x1cc>
  402b94:	89 df                	mov    %ebx,%edi
  402b96:	e8 85 e1 ff ff       	callq  400d20 <close@plt>
  402b9b:	66 41 c7 04 24 4f 4b 	movw   $0x4b4f,(%r12)
  402ba2:	41 c6 44 24 02 00    	movb   $0x0,0x2(%r12)
  402ba8:	b8 00 00 00 00       	mov    $0x0,%eax
  402bad:	48 8b 4c 24 18       	mov    0x18(%rsp),%rcx
  402bb2:	64 48 33 0c 25 28 00 	xor    %fs:0x28,%rcx
  402bb9:	00 00 
  402bbb:	0f 85 28 01 00 00    	jne    402ce9 <init_driver+0x226>
  402bc1:	48 83 c4 20          	add    $0x20,%rsp
  402bc5:	5b                   	pop    %rbx
  402bc6:	5d                   	pop    %rbp
  402bc7:	41 5c                	pop    %r12
  402bc9:	c3                   	retq   
  402bca:	48 b8 45 72 72 6f 72 	movabs $0x43203a726f727245,%rax
  402bd1:	3a 20 43 
  402bd4:	48 ba 6c 69 65 6e 74 	movabs $0x6e7520746e65696c,%rdx
  402bdb:	20 75 6e 
  402bde:	49 89 04 24          	mov    %rax,(%r12)
  402be2:	49 89 54 24 08       	mov    %rdx,0x8(%r12)
  402be7:	48 b8 61 62 6c 65 20 	movabs $0x206f7420656c6261,%rax
  402bee:	74 6f 20 
  402bf1:	48 ba 63 72 65 61 74 	movabs $0x7320657461657263,%rdx
  402bf8:	65 20 73 
  402bfb:	49 89 44 24 10       	mov    %rax,0x10(%r12)
  402c00:	49 89 54 24 18       	mov    %rdx,0x18(%r12)
  402c05:	41 c7 44 24 20 6f 63 	movl   $0x656b636f,0x20(%r12)
  402c0c:	6b 65 
  402c0e:	66 41 c7 44 24 24 74 	movw   $0x74,0x24(%r12)
  402c15:	00 
  402c16:	b8 ff ff ff ff       	mov    $0xffffffff,%eax
  402c1b:	eb 90                	jmp    402bad <init_driver+0xea>
  402c1d:	48 b8 45 72 72 6f 72 	movabs $0x44203a726f727245,%rax
  402c24:	3a 20 44 
  402c27:	48 ba 4e 53 20 69 73 	movabs $0x6e7520736920534e,%rdx
  402c2e:	20 75 6e 
  402c31:	49 89 04 24          	mov    %rax,(%r12)
  402c35:	49 89 54 24 08       	mov    %rdx,0x8(%r12)
  402c3a:	48 b8 61 62 6c 65 20 	movabs $0x206f7420656c6261,%rax
  402c41:	74 6f 20 
  402c44:	48 ba 72 65 73 6f 6c 	movabs $0x2065766c6f736572,%rdx
  402c4b:	76 65 20 
  402c4e:	49 89 44 24 10       	mov    %rax,0x10(%r12)
  402c53:	49 89 54 24 18       	mov    %rdx,0x18(%r12)
  402c58:	48 b8 73 65 72 76 65 	movabs $0x6120726576726573,%rax
  402c5f:	72 20 61 
  402c62:	49 89 44 24 20       	mov    %rax,0x20(%r12)
  402c67:	41 c7 44 24 28 64 64 	movl   $0x65726464,0x28(%r12)
  402c6e:	72 65 
  402c70:	66 41 c7 44 24 2c 73 	movw   $0x7373,0x2c(%r12)
  402c77:	73 
  402c78:	41 c6 44 24 2e 00    	movb   $0x0,0x2e(%r12)
  402c7e:	89 df                	mov    %ebx,%edi
  402c80:	e8 9b e0 ff ff       	callq  400d20 <close@plt>
  402c85:	b8 ff ff ff ff       	mov    $0xffffffff,%eax
  402c8a:	e9 1e ff ff ff       	jmpq   402bad <init_driver+0xea>
  402c8f:	48 b8 45 72 72 6f 72 	movabs $0x55203a726f727245,%rax
  402c96:	3a 20 55 
  402c99:	48 ba 6e 61 62 6c 65 	movabs $0x6f7420656c62616e,%rdx
  402ca0:	20 74 6f 
  402ca3:	49 89 04 24          	mov    %rax,(%r12)
  402ca7:	49 89 54 24 08       	mov    %rdx,0x8(%r12)
  402cac:	48 b8 20 63 6f 6e 6e 	movabs $0x7463656e6e6f6320,%rax
  402cb3:	65 63 74 
  402cb6:	48 ba 20 74 6f 20 73 	movabs $0x76726573206f7420,%rdx
  402cbd:	65 72 76 
  402cc0:	49 89 44 24 10       	mov    %rax,0x10(%r12)
  402cc5:	49 89 54 24 18       	mov    %rdx,0x18(%r12)
  402cca:	66 41 c7 44 24 20 65 	movw   $0x7265,0x20(%r12)
  402cd1:	72 
  402cd2:	41 c6 44 24 22 00    	movb   $0x0,0x22(%r12)
  402cd8:	89 df                	mov    %ebx,%edi
  402cda:	e8 41 e0 ff ff       	callq  400d20 <close@plt>
  402cdf:	b8 ff ff ff ff       	mov    $0xffffffff,%eax
  402ce4:	e9 c4 fe ff ff       	jmpq   402bad <init_driver+0xea>
  402ce9:	e8 f2 df ff ff       	callq  400ce0 <__stack_chk_fail@plt>

0000000000402cee <driver_post>:
  402cee:	53                   	push   %rbx
  402cef:	4c 89 cb             	mov    %r9,%rbx
  402cf2:	45 85 c0             	test   %r8d,%r8d
  402cf5:	75 18                	jne    402d0f <driver_post+0x21>
  402cf7:	48 85 ff             	test   %rdi,%rdi
  402cfa:	74 05                	je     402d01 <driver_post+0x13>
  402cfc:	80 3f 00             	cmpb   $0x0,(%rdi)
  402cff:	75 37                	jne    402d38 <driver_post+0x4a>
  402d01:	66 c7 03 4f 4b       	movw   $0x4b4f,(%rbx)
  402d06:	c6 43 02 00          	movb   $0x0,0x2(%rbx)
  402d0a:	44 89 c0             	mov    %r8d,%eax
  402d0d:	5b                   	pop    %rbx
  402d0e:	c3                   	retq   
  402d0f:	48 89 ca             	mov    %rcx,%rdx
  402d12:	48 8d 35 0b 08 00 00 	lea    0x80b(%rip),%rsi        # 403524 <trans_char+0xe4>
  402d19:	bf 01 00 00 00       	mov    $0x1,%edi
  402d1e:	b8 00 00 00 00       	mov    $0x0,%eax
  402d23:	e8 b8 e0 ff ff       	callq  400de0 <__printf_chk@plt>
  402d28:	66 c7 03 4f 4b       	movw   $0x4b4f,(%rbx)
  402d2d:	c6 43 02 00          	movb   $0x0,0x2(%rbx)
  402d31:	b8 00 00 00 00       	mov    $0x0,%eax
  402d36:	eb d5                	jmp    402d0d <driver_post+0x1f>
  402d38:	48 83 ec 08          	sub    $0x8,%rsp
  402d3c:	41 51                	push   %r9
  402d3e:	49 89 c9             	mov    %rcx,%r9
  402d41:	49 89 d0             	mov    %rdx,%r8
  402d44:	48 89 f9             	mov    %rdi,%rcx
  402d47:	48 89 f2             	mov    %rsi,%rdx
  402d4a:	be 9a 3c 00 00       	mov    $0x3c9a,%esi
  402d4f:	48 8d 3d b6 07 00 00 	lea    0x7b6(%rip),%rdi        # 40350c <trans_char+0xcc>
  402d56:	e8 b9 f5 ff ff       	callq  402314 <submitr>
  402d5b:	48 83 c4 10          	add    $0x10,%rsp
  402d5f:	eb ac                	jmp    402d0d <driver_post+0x1f>

0000000000402d61 <check>:
  402d61:	89 f8                	mov    %edi,%eax
  402d63:	c1 e8 1c             	shr    $0x1c,%eax
  402d66:	85 c0                	test   %eax,%eax
  402d68:	74 1d                	je     402d87 <check+0x26>
  402d6a:	b9 00 00 00 00       	mov    $0x0,%ecx
  402d6f:	83 f9 1f             	cmp    $0x1f,%ecx
  402d72:	7f 0d                	jg     402d81 <check+0x20>
  402d74:	89 f8                	mov    %edi,%eax
  402d76:	d3 e8                	shr    %cl,%eax
  402d78:	3c 0a                	cmp    $0xa,%al
  402d7a:	74 11                	je     402d8d <check+0x2c>
  402d7c:	83 c1 08             	add    $0x8,%ecx
  402d7f:	eb ee                	jmp    402d6f <check+0xe>
  402d81:	b8 01 00 00 00       	mov    $0x1,%eax
  402d86:	c3                   	retq   
  402d87:	b8 00 00 00 00       	mov    $0x0,%eax
  402d8c:	c3                   	retq   
  402d8d:	b8 00 00 00 00       	mov    $0x0,%eax
  402d92:	c3                   	retq   

0000000000402d93 <gencookie>:
  402d93:	53                   	push   %rbx
  402d94:	83 c7 01             	add    $0x1,%edi
  402d97:	e8 f4 de ff ff       	callq  400c90 <srandom@plt>
  402d9c:	e8 ff df ff ff       	callq  400da0 <random@plt>
  402da1:	89 c3                	mov    %eax,%ebx
  402da3:	89 c7                	mov    %eax,%edi
  402da5:	e8 b7 ff ff ff       	callq  402d61 <check>
  402daa:	85 c0                	test   %eax,%eax
  402dac:	74 ee                	je     402d9c <gencookie+0x9>
  402dae:	89 d8                	mov    %ebx,%eax
  402db0:	5b                   	pop    %rbx
  402db1:	c3                   	retq   
  402db2:	66 2e 0f 1f 84 00 00 	nopw   %cs:0x0(%rax,%rax,1)
  402db9:	00 00 00 
  402dbc:	0f 1f 40 00          	nopl   0x0(%rax)

0000000000402dc0 <__libc_csu_init>:
  402dc0:	41 57                	push   %r15
  402dc2:	41 56                	push   %r14
  402dc4:	49 89 d7             	mov    %rdx,%r15
  402dc7:	41 55                	push   %r13
  402dc9:	41 54                	push   %r12
  402dcb:	4c 8d 25 3e 10 20 00 	lea    0x20103e(%rip),%r12        # 603e10 <__frame_dummy_init_array_entry>
  402dd2:	55                   	push   %rbp
  402dd3:	48 8d 2d 3e 10 20 00 	lea    0x20103e(%rip),%rbp        # 603e18 <__init_array_end>
  402dda:	53                   	push   %rbx
  402ddb:	41 89 fd             	mov    %edi,%r13d
  402dde:	49 89 f6             	mov    %rsi,%r14
  402de1:	4c 29 e5             	sub    %r12,%rbp
  402de4:	48 83 ec 08          	sub    $0x8,%rsp
  402de8:	48 c1 fd 03          	sar    $0x3,%rbp
  402dec:	e8 57 de ff ff       	callq  400c48 <_init>
  402df1:	48 85 ed             	test   %rbp,%rbp
  402df4:	74 20                	je     402e16 <__libc_csu_init+0x56>
  402df6:	31 db                	xor    %ebx,%ebx
  402df8:	0f 1f 84 00 00 00 00 	nopl   0x0(%rax,%rax,1)
  402dff:	00 
  402e00:	4c 89 fa             	mov    %r15,%rdx
  402e03:	4c 89 f6             	mov    %r14,%rsi
  402e06:	44 89 ef             	mov    %r13d,%edi
  402e09:	41 ff 14 dc          	callq  *(%r12,%rbx,8)
  402e0d:	48 83 c3 01          	add    $0x1,%rbx
  402e11:	48 39 dd             	cmp    %rbx,%rbp
  402e14:	75 ea                	jne    402e00 <__libc_csu_init+0x40>
  402e16:	48 83 c4 08          	add    $0x8,%rsp
  402e1a:	5b                   	pop    %rbx
  402e1b:	5d                   	pop    %rbp
  402e1c:	41 5c                	pop    %r12
  402e1e:	41 5d                	pop    %r13
  402e20:	41 5e                	pop    %r14
  402e22:	41 5f                	pop    %r15
  402e24:	c3                   	retq   
  402e25:	90                   	nop
  402e26:	66 2e 0f 1f 84 00 00 	nopw   %cs:0x0(%rax,%rax,1)
  402e2d:	00 00 00 

0000000000402e30 <__libc_csu_fini>:
  402e30:	f3 c3                	repz retq 

Disassembly of section .fini:

0000000000402e34 <_fini>:
  402e34:	48 83 ec 08          	sub    $0x8,%rsp
  402e38:	48 83 c4 08          	add    $0x8,%rsp
  402e3c:	c3                   	retq   
