
rtarget:     file format elf64-x86-64


Disassembly of section .init:

0000000000400c48 <_init>:
  400c48:	48 83 ec 08          	sub    $0x8,%rsp
  400c4c:	48 8b 05 a5 43 20 00 	mov    0x2043a5(%rip),%rax        # 604ff8 <__gmon_start__>
  400c53:	48 85 c0             	test   %rax,%rax
  400c56:	74 02                	je     400c5a <_init+0x12>
  400c58:	ff d0                	callq  *%rax
  400c5a:	48 83 c4 08          	add    $0x8,%rsp
  400c5e:	c3                   	retq   

Disassembly of section .plt:

0000000000400c60 <.plt>:
  400c60:	ff 35 a2 43 20 00    	pushq  0x2043a2(%rip)        # 605008 <_GLOBAL_OFFSET_TABLE_+0x8>
  400c66:	ff 25 a4 43 20 00    	jmpq   *0x2043a4(%rip)        # 605010 <_GLOBAL_OFFSET_TABLE_+0x10>
  400c6c:	0f 1f 40 00          	nopl   0x0(%rax)

0000000000400c70 <strcasecmp@plt>:
  400c70:	ff 25 a2 43 20 00    	jmpq   *0x2043a2(%rip)        # 605018 <strcasecmp@GLIBC_2.2.5>
  400c76:	68 00 00 00 00       	pushq  $0x0
  400c7b:	e9 e0 ff ff ff       	jmpq   400c60 <.plt>

0000000000400c80 <__errno_location@plt>:
  400c80:	ff 25 9a 43 20 00    	jmpq   *0x20439a(%rip)        # 605020 <__errno_location@GLIBC_2.2.5>
  400c86:	68 01 00 00 00       	pushq  $0x1
  400c8b:	e9 d0 ff ff ff       	jmpq   400c60 <.plt>

0000000000400c90 <srandom@plt>:
  400c90:	ff 25 92 43 20 00    	jmpq   *0x204392(%rip)        # 605028 <srandom@GLIBC_2.2.5>
  400c96:	68 02 00 00 00       	pushq  $0x2
  400c9b:	e9 c0 ff ff ff       	jmpq   400c60 <.plt>

0000000000400ca0 <strncmp@plt>:
  400ca0:	ff 25 8a 43 20 00    	jmpq   *0x20438a(%rip)        # 605030 <strncmp@GLIBC_2.2.5>
  400ca6:	68 03 00 00 00       	pushq  $0x3
  400cab:	e9 b0 ff ff ff       	jmpq   400c60 <.plt>

0000000000400cb0 <strcpy@plt>:
  400cb0:	ff 25 82 43 20 00    	jmpq   *0x204382(%rip)        # 605038 <strcpy@GLIBC_2.2.5>
  400cb6:	68 04 00 00 00       	pushq  $0x4
  400cbb:	e9 a0 ff ff ff       	jmpq   400c60 <.plt>

0000000000400cc0 <puts@plt>:
  400cc0:	ff 25 7a 43 20 00    	jmpq   *0x20437a(%rip)        # 605040 <puts@GLIBC_2.2.5>
  400cc6:	68 05 00 00 00       	pushq  $0x5
  400ccb:	e9 90 ff ff ff       	jmpq   400c60 <.plt>

0000000000400cd0 <write@plt>:
  400cd0:	ff 25 72 43 20 00    	jmpq   *0x204372(%rip)        # 605048 <write@GLIBC_2.2.5>
  400cd6:	68 06 00 00 00       	pushq  $0x6
  400cdb:	e9 80 ff ff ff       	jmpq   400c60 <.plt>

0000000000400ce0 <__stack_chk_fail@plt>:
  400ce0:	ff 25 6a 43 20 00    	jmpq   *0x20436a(%rip)        # 605050 <__stack_chk_fail@GLIBC_2.4>
  400ce6:	68 07 00 00 00       	pushq  $0x7
  400ceb:	e9 70 ff ff ff       	jmpq   400c60 <.plt>

0000000000400cf0 <mmap@plt>:
  400cf0:	ff 25 62 43 20 00    	jmpq   *0x204362(%rip)        # 605058 <mmap@GLIBC_2.2.5>
  400cf6:	68 08 00 00 00       	pushq  $0x8
  400cfb:	e9 60 ff ff ff       	jmpq   400c60 <.plt>

0000000000400d00 <memset@plt>:
  400d00:	ff 25 5a 43 20 00    	jmpq   *0x20435a(%rip)        # 605060 <memset@GLIBC_2.2.5>
  400d06:	68 09 00 00 00       	pushq  $0x9
  400d0b:	e9 50 ff ff ff       	jmpq   400c60 <.plt>

0000000000400d10 <alarm@plt>:
  400d10:	ff 25 52 43 20 00    	jmpq   *0x204352(%rip)        # 605068 <alarm@GLIBC_2.2.5>
  400d16:	68 0a 00 00 00       	pushq  $0xa
  400d1b:	e9 40 ff ff ff       	jmpq   400c60 <.plt>

0000000000400d20 <close@plt>:
  400d20:	ff 25 4a 43 20 00    	jmpq   *0x20434a(%rip)        # 605070 <close@GLIBC_2.2.5>
  400d26:	68 0b 00 00 00       	pushq  $0xb
  400d2b:	e9 30 ff ff ff       	jmpq   400c60 <.plt>

0000000000400d30 <read@plt>:
  400d30:	ff 25 42 43 20 00    	jmpq   *0x204342(%rip)        # 605078 <read@GLIBC_2.2.5>
  400d36:	68 0c 00 00 00       	pushq  $0xc
  400d3b:	e9 20 ff ff ff       	jmpq   400c60 <.plt>

0000000000400d40 <signal@plt>:
  400d40:	ff 25 3a 43 20 00    	jmpq   *0x20433a(%rip)        # 605080 <signal@GLIBC_2.2.5>
  400d46:	68 0d 00 00 00       	pushq  $0xd
  400d4b:	e9 10 ff ff ff       	jmpq   400c60 <.plt>

0000000000400d50 <gethostbyname@plt>:
  400d50:	ff 25 32 43 20 00    	jmpq   *0x204332(%rip)        # 605088 <gethostbyname@GLIBC_2.2.5>
  400d56:	68 0e 00 00 00       	pushq  $0xe
  400d5b:	e9 00 ff ff ff       	jmpq   400c60 <.plt>

0000000000400d60 <__memmove_chk@plt>:
  400d60:	ff 25 2a 43 20 00    	jmpq   *0x20432a(%rip)        # 605090 <__memmove_chk@GLIBC_2.3.4>
  400d66:	68 0f 00 00 00       	pushq  $0xf
  400d6b:	e9 f0 fe ff ff       	jmpq   400c60 <.plt>

0000000000400d70 <strtol@plt>:
  400d70:	ff 25 22 43 20 00    	jmpq   *0x204322(%rip)        # 605098 <strtol@GLIBC_2.2.5>
  400d76:	68 10 00 00 00       	pushq  $0x10
  400d7b:	e9 e0 fe ff ff       	jmpq   400c60 <.plt>

0000000000400d80 <memcpy@plt>:
  400d80:	ff 25 1a 43 20 00    	jmpq   *0x20431a(%rip)        # 6050a0 <memcpy@GLIBC_2.14>
  400d86:	68 11 00 00 00       	pushq  $0x11
  400d8b:	e9 d0 fe ff ff       	jmpq   400c60 <.plt>

0000000000400d90 <time@plt>:
  400d90:	ff 25 12 43 20 00    	jmpq   *0x204312(%rip)        # 6050a8 <time@GLIBC_2.2.5>
  400d96:	68 12 00 00 00       	pushq  $0x12
  400d9b:	e9 c0 fe ff ff       	jmpq   400c60 <.plt>

0000000000400da0 <random@plt>:
  400da0:	ff 25 0a 43 20 00    	jmpq   *0x20430a(%rip)        # 6050b0 <random@GLIBC_2.2.5>
  400da6:	68 13 00 00 00       	pushq  $0x13
  400dab:	e9 b0 fe ff ff       	jmpq   400c60 <.plt>

0000000000400db0 <_IO_getc@plt>:
  400db0:	ff 25 02 43 20 00    	jmpq   *0x204302(%rip)        # 6050b8 <_IO_getc@GLIBC_2.2.5>
  400db6:	68 14 00 00 00       	pushq  $0x14
  400dbb:	e9 a0 fe ff ff       	jmpq   400c60 <.plt>

0000000000400dc0 <__isoc99_sscanf@plt>:
  400dc0:	ff 25 fa 42 20 00    	jmpq   *0x2042fa(%rip)        # 6050c0 <__isoc99_sscanf@GLIBC_2.7>
  400dc6:	68 15 00 00 00       	pushq  $0x15
  400dcb:	e9 90 fe ff ff       	jmpq   400c60 <.plt>

0000000000400dd0 <munmap@plt>:
  400dd0:	ff 25 f2 42 20 00    	jmpq   *0x2042f2(%rip)        # 6050c8 <munmap@GLIBC_2.2.5>
  400dd6:	68 16 00 00 00       	pushq  $0x16
  400ddb:	e9 80 fe ff ff       	jmpq   400c60 <.plt>

0000000000400de0 <__printf_chk@plt>:
  400de0:	ff 25 ea 42 20 00    	jmpq   *0x2042ea(%rip)        # 6050d0 <__printf_chk@GLIBC_2.3.4>
  400de6:	68 17 00 00 00       	pushq  $0x17
  400deb:	e9 70 fe ff ff       	jmpq   400c60 <.plt>

0000000000400df0 <fopen@plt>:
  400df0:	ff 25 e2 42 20 00    	jmpq   *0x2042e2(%rip)        # 6050d8 <fopen@GLIBC_2.2.5>
  400df6:	68 18 00 00 00       	pushq  $0x18
  400dfb:	e9 60 fe ff ff       	jmpq   400c60 <.plt>

0000000000400e00 <getopt@plt>:
  400e00:	ff 25 da 42 20 00    	jmpq   *0x2042da(%rip)        # 6050e0 <getopt@GLIBC_2.2.5>
  400e06:	68 19 00 00 00       	pushq  $0x19
  400e0b:	e9 50 fe ff ff       	jmpq   400c60 <.plt>

0000000000400e10 <strtoul@plt>:
  400e10:	ff 25 d2 42 20 00    	jmpq   *0x2042d2(%rip)        # 6050e8 <strtoul@GLIBC_2.2.5>
  400e16:	68 1a 00 00 00       	pushq  $0x1a
  400e1b:	e9 40 fe ff ff       	jmpq   400c60 <.plt>

0000000000400e20 <gethostname@plt>:
  400e20:	ff 25 ca 42 20 00    	jmpq   *0x2042ca(%rip)        # 6050f0 <gethostname@GLIBC_2.2.5>
  400e26:	68 1b 00 00 00       	pushq  $0x1b
  400e2b:	e9 30 fe ff ff       	jmpq   400c60 <.plt>

0000000000400e30 <exit@plt>:
  400e30:	ff 25 c2 42 20 00    	jmpq   *0x2042c2(%rip)        # 6050f8 <exit@GLIBC_2.2.5>
  400e36:	68 1c 00 00 00       	pushq  $0x1c
  400e3b:	e9 20 fe ff ff       	jmpq   400c60 <.plt>

0000000000400e40 <connect@plt>:
  400e40:	ff 25 ba 42 20 00    	jmpq   *0x2042ba(%rip)        # 605100 <connect@GLIBC_2.2.5>
  400e46:	68 1d 00 00 00       	pushq  $0x1d
  400e4b:	e9 10 fe ff ff       	jmpq   400c60 <.plt>

0000000000400e50 <__fprintf_chk@plt>:
  400e50:	ff 25 b2 42 20 00    	jmpq   *0x2042b2(%rip)        # 605108 <__fprintf_chk@GLIBC_2.3.4>
  400e56:	68 1e 00 00 00       	pushq  $0x1e
  400e5b:	e9 00 fe ff ff       	jmpq   400c60 <.plt>

0000000000400e60 <__sprintf_chk@plt>:
  400e60:	ff 25 aa 42 20 00    	jmpq   *0x2042aa(%rip)        # 605110 <__sprintf_chk@GLIBC_2.3.4>
  400e66:	68 1f 00 00 00       	pushq  $0x1f
  400e6b:	e9 f0 fd ff ff       	jmpq   400c60 <.plt>

0000000000400e70 <socket@plt>:
  400e70:	ff 25 a2 42 20 00    	jmpq   *0x2042a2(%rip)        # 605118 <socket@GLIBC_2.2.5>
  400e76:	68 20 00 00 00       	pushq  $0x20
  400e7b:	e9 e0 fd ff ff       	jmpq   400c60 <.plt>

Disassembly of section .text:

0000000000400e80 <_start>:
  400e80:	31 ed                	xor    %ebp,%ebp
  400e82:	49 89 d1             	mov    %rdx,%r9
  400e85:	5e                   	pop    %rsi
  400e86:	48 89 e2             	mov    %rsp,%rdx
  400e89:	48 83 e4 f0          	and    $0xfffffffffffffff0,%rsp
  400e8d:	50                   	push   %rax
  400e8e:	54                   	push   %rsp
  400e8f:	49 c7 c0 40 2f 40 00 	mov    $0x402f40,%r8
  400e96:	48 c7 c1 d0 2e 40 00 	mov    $0x402ed0,%rcx
  400e9d:	48 c7 c7 8e 11 40 00 	mov    $0x40118e,%rdi
  400ea4:	ff 15 46 41 20 00    	callq  *0x204146(%rip)        # 604ff0 <__libc_start_main@GLIBC_2.2.5>
  400eaa:	f4                   	hlt    
  400eab:	0f 1f 44 00 00       	nopl   0x0(%rax,%rax,1)

0000000000400eb0 <_dl_relocate_static_pie>:
  400eb0:	f3 c3                	repz retq 
  400eb2:	66 2e 0f 1f 84 00 00 	nopw   %cs:0x0(%rax,%rax,1)
  400eb9:	00 00 00 
  400ebc:	0f 1f 40 00          	nopl   0x0(%rax)

0000000000400ec0 <deregister_tm_clones>:
  400ec0:	55                   	push   %rbp
  400ec1:	b8 88 54 60 00       	mov    $0x605488,%eax
  400ec6:	48 3d 88 54 60 00    	cmp    $0x605488,%rax
  400ecc:	48 89 e5             	mov    %rsp,%rbp
  400ecf:	74 17                	je     400ee8 <deregister_tm_clones+0x28>
  400ed1:	b8 00 00 00 00       	mov    $0x0,%eax
  400ed6:	48 85 c0             	test   %rax,%rax
  400ed9:	74 0d                	je     400ee8 <deregister_tm_clones+0x28>
  400edb:	5d                   	pop    %rbp
  400edc:	bf 88 54 60 00       	mov    $0x605488,%edi
  400ee1:	ff e0                	jmpq   *%rax
  400ee3:	0f 1f 44 00 00       	nopl   0x0(%rax,%rax,1)
  400ee8:	5d                   	pop    %rbp
  400ee9:	c3                   	retq   
  400eea:	66 0f 1f 44 00 00    	nopw   0x0(%rax,%rax,1)

0000000000400ef0 <register_tm_clones>:
  400ef0:	be 88 54 60 00       	mov    $0x605488,%esi
  400ef5:	55                   	push   %rbp
  400ef6:	48 81 ee 88 54 60 00 	sub    $0x605488,%rsi
  400efd:	48 89 e5             	mov    %rsp,%rbp
  400f00:	48 c1 fe 03          	sar    $0x3,%rsi
  400f04:	48 89 f0             	mov    %rsi,%rax
  400f07:	48 c1 e8 3f          	shr    $0x3f,%rax
  400f0b:	48 01 c6             	add    %rax,%rsi
  400f0e:	48 d1 fe             	sar    %rsi
  400f11:	74 15                	je     400f28 <register_tm_clones+0x38>
  400f13:	b8 00 00 00 00       	mov    $0x0,%eax
  400f18:	48 85 c0             	test   %rax,%rax
  400f1b:	74 0b                	je     400f28 <register_tm_clones+0x38>
  400f1d:	5d                   	pop    %rbp
  400f1e:	bf 88 54 60 00       	mov    $0x605488,%edi
  400f23:	ff e0                	jmpq   *%rax
  400f25:	0f 1f 00             	nopl   (%rax)
  400f28:	5d                   	pop    %rbp
  400f29:	c3                   	retq   
  400f2a:	66 0f 1f 44 00 00    	nopw   0x0(%rax,%rax,1)

0000000000400f30 <__do_global_dtors_aux>:
  400f30:	80 3d 91 45 20 00 00 	cmpb   $0x0,0x204591(%rip)        # 6054c8 <completed.7698>
  400f37:	75 17                	jne    400f50 <__do_global_dtors_aux+0x20>
  400f39:	55                   	push   %rbp
  400f3a:	48 89 e5             	mov    %rsp,%rbp
  400f3d:	e8 7e ff ff ff       	callq  400ec0 <deregister_tm_clones>
  400f42:	c6 05 7f 45 20 00 01 	movb   $0x1,0x20457f(%rip)        # 6054c8 <completed.7698>
  400f49:	5d                   	pop    %rbp
  400f4a:	c3                   	retq   
  400f4b:	0f 1f 44 00 00       	nopl   0x0(%rax,%rax,1)
  400f50:	f3 c3                	repz retq 
  400f52:	0f 1f 40 00          	nopl   0x0(%rax)
  400f56:	66 2e 0f 1f 84 00 00 	nopw   %cs:0x0(%rax,%rax,1)
  400f5d:	00 00 00 

0000000000400f60 <frame_dummy>:
  400f60:	55                   	push   %rbp
  400f61:	48 89 e5             	mov    %rsp,%rbp
  400f64:	5d                   	pop    %rbp
  400f65:	eb 89                	jmp    400ef0 <register_tm_clones>

0000000000400f67 <usage>:
  400f67:	48 83 ec 08          	sub    $0x8,%rsp
  400f6b:	48 89 fa             	mov    %rdi,%rdx
  400f6e:	83 3d 97 45 20 00 00 	cmpl   $0x0,0x204597(%rip)        # 60550c <is_checker>
  400f75:	74 50                	je     400fc7 <usage+0x60>
  400f77:	48 8d 35 da 1f 00 00 	lea    0x1fda(%rip),%rsi        # 402f58 <_IO_stdin_used+0x8>
  400f7e:	bf 01 00 00 00       	mov    $0x1,%edi
  400f83:	b8 00 00 00 00       	mov    $0x0,%eax
  400f88:	e8 53 fe ff ff       	callq  400de0 <__printf_chk@plt>
  400f8d:	48 8d 3d fc 1f 00 00 	lea    0x1ffc(%rip),%rdi        # 402f90 <_IO_stdin_used+0x40>
  400f94:	e8 27 fd ff ff       	callq  400cc0 <puts@plt>
  400f99:	48 8d 3d 32 21 00 00 	lea    0x2132(%rip),%rdi        # 4030d2 <_IO_stdin_used+0x182>
  400fa0:	e8 1b fd ff ff       	callq  400cc0 <puts@plt>
  400fa5:	48 8d 3d 0c 20 00 00 	lea    0x200c(%rip),%rdi        # 402fb8 <_IO_stdin_used+0x68>
  400fac:	e8 0f fd ff ff       	callq  400cc0 <puts@plt>
  400fb1:	48 8d 3d 34 21 00 00 	lea    0x2134(%rip),%rdi        # 4030ec <_IO_stdin_used+0x19c>
  400fb8:	e8 03 fd ff ff       	callq  400cc0 <puts@plt>
  400fbd:	bf 00 00 00 00       	mov    $0x0,%edi
  400fc2:	e8 69 fe ff ff       	callq  400e30 <exit@plt>
  400fc7:	48 8d 35 3a 21 00 00 	lea    0x213a(%rip),%rsi        # 403108 <_IO_stdin_used+0x1b8>
  400fce:	bf 01 00 00 00       	mov    $0x1,%edi
  400fd3:	b8 00 00 00 00       	mov    $0x0,%eax
  400fd8:	e8 03 fe ff ff       	callq  400de0 <__printf_chk@plt>
  400fdd:	48 8d 3d fc 1f 00 00 	lea    0x1ffc(%rip),%rdi        # 402fe0 <_IO_stdin_used+0x90>
  400fe4:	e8 d7 fc ff ff       	callq  400cc0 <puts@plt>
  400fe9:	48 8d 3d 18 20 00 00 	lea    0x2018(%rip),%rdi        # 403008 <_IO_stdin_used+0xb8>
  400ff0:	e8 cb fc ff ff       	callq  400cc0 <puts@plt>
  400ff5:	48 8d 3d 2a 21 00 00 	lea    0x212a(%rip),%rdi        # 403126 <_IO_stdin_used+0x1d6>
  400ffc:	e8 bf fc ff ff       	callq  400cc0 <puts@plt>
  401001:	eb ba                	jmp    400fbd <usage+0x56>

0000000000401003 <initialize_target>:
  401003:	55                   	push   %rbp
  401004:	53                   	push   %rbx
  401005:	48 81 ec 18 21 00 00 	sub    $0x2118,%rsp
  40100c:	89 f5                	mov    %esi,%ebp
  40100e:	64 48 8b 04 25 28 00 	mov    %fs:0x28,%rax
  401015:	00 00 
  401017:	48 89 84 24 08 21 00 	mov    %rax,0x2108(%rsp)
  40101e:	00 
  40101f:	31 c0                	xor    %eax,%eax
  401021:	89 3d d5 44 20 00    	mov    %edi,0x2044d5(%rip)        # 6054fc <check_level>
  401027:	8b 3d 03 41 20 00    	mov    0x204103(%rip),%edi        # 605130 <target_id>
  40102d:	e8 7d 1e 00 00       	callq  402eaf <gencookie>
  401032:	89 05 d0 44 20 00    	mov    %eax,0x2044d0(%rip)        # 605508 <cookie>
  401038:	89 c7                	mov    %eax,%edi
  40103a:	e8 70 1e 00 00       	callq  402eaf <gencookie>
  40103f:	89 05 bf 44 20 00    	mov    %eax,0x2044bf(%rip)        # 605504 <authkey>
  401045:	8b 05 e5 40 20 00    	mov    0x2040e5(%rip),%eax        # 605130 <target_id>
  40104b:	8d 78 01             	lea    0x1(%rax),%edi
  40104e:	e8 3d fc ff ff       	callq  400c90 <srandom@plt>
  401053:	e8 48 fd ff ff       	callq  400da0 <random@plt>
  401058:	89 c7                	mov    %eax,%edi
  40105a:	e8 de 02 00 00       	callq  40133d <scramble>
  40105f:	89 c3                	mov    %eax,%ebx
  401061:	85 ed                	test   %ebp,%ebp
  401063:	75 54                	jne    4010b9 <initialize_target+0xb6>
  401065:	b8 00 00 00 00       	mov    $0x0,%eax
  40106a:	01 d8                	add    %ebx,%eax
  40106c:	0f b7 c0             	movzwl %ax,%eax
  40106f:	8d 04 c5 00 01 00 00 	lea    0x100(,%rax,8),%eax
  401076:	89 c0                	mov    %eax,%eax
  401078:	48 89 05 01 44 20 00 	mov    %rax,0x204401(%rip)        # 605480 <buf_offset>
  40107f:	c6 05 a2 50 20 00 72 	movb   $0x72,0x2050a2(%rip)        # 606128 <target_prefix>
  401086:	83 3d 6b 44 20 00 00 	cmpl   $0x0,0x20446b(%rip)        # 6054f8 <notify>
  40108d:	74 09                	je     401098 <initialize_target+0x95>
  40108f:	83 3d 76 44 20 00 00 	cmpl   $0x0,0x204476(%rip)        # 60550c <is_checker>
  401096:	74 39                	je     4010d1 <initialize_target+0xce>
  401098:	48 8b 84 24 08 21 00 	mov    0x2108(%rsp),%rax
  40109f:	00 
  4010a0:	64 48 33 04 25 28 00 	xor    %fs:0x28,%rax
  4010a7:	00 00 
  4010a9:	0f 85 da 00 00 00    	jne    401189 <initialize_target+0x186>
  4010af:	48 81 c4 18 21 00 00 	add    $0x2118,%rsp
  4010b6:	5b                   	pop    %rbx
  4010b7:	5d                   	pop    %rbp
  4010b8:	c3                   	retq   
  4010b9:	bf 00 00 00 00       	mov    $0x0,%edi
  4010be:	e8 cd fc ff ff       	callq  400d90 <time@plt>
  4010c3:	89 c7                	mov    %eax,%edi
  4010c5:	e8 c6 fb ff ff       	callq  400c90 <srandom@plt>
  4010ca:	e8 d1 fc ff ff       	callq  400da0 <random@plt>
  4010cf:	eb 99                	jmp    40106a <initialize_target+0x67>
  4010d1:	48 89 e7             	mov    %rsp,%rdi
  4010d4:	be 00 01 00 00       	mov    $0x100,%esi
  4010d9:	e8 42 fd ff ff       	callq  400e20 <gethostname@plt>
  4010de:	89 c5                	mov    %eax,%ebp
  4010e0:	85 c0                	test   %eax,%eax
  4010e2:	75 26                	jne    40110a <initialize_target+0x107>
  4010e4:	89 c3                	mov    %eax,%ebx
  4010e6:	48 63 c3             	movslq %ebx,%rax
  4010e9:	48 8d 15 70 40 20 00 	lea    0x204070(%rip),%rdx        # 605160 <host_table>
  4010f0:	48 8b 3c c2          	mov    (%rdx,%rax,8),%rdi
  4010f4:	48 85 ff             	test   %rdi,%rdi
  4010f7:	74 2c                	je     401125 <initialize_target+0x122>
  4010f9:	48 89 e6             	mov    %rsp,%rsi
  4010fc:	e8 6f fb ff ff       	callq  400c70 <strcasecmp@plt>
  401101:	85 c0                	test   %eax,%eax
  401103:	74 1b                	je     401120 <initialize_target+0x11d>
  401105:	83 c3 01             	add    $0x1,%ebx
  401108:	eb dc                	jmp    4010e6 <initialize_target+0xe3>
  40110a:	48 8d 3d 27 1f 00 00 	lea    0x1f27(%rip),%rdi        # 403038 <_IO_stdin_used+0xe8>
  401111:	e8 aa fb ff ff       	callq  400cc0 <puts@plt>
  401116:	bf 08 00 00 00       	mov    $0x8,%edi
  40111b:	e8 10 fd ff ff       	callq  400e30 <exit@plt>
  401120:	bd 01 00 00 00       	mov    $0x1,%ebp
  401125:	85 ed                	test   %ebp,%ebp
  401127:	74 3d                	je     401166 <initialize_target+0x163>
  401129:	48 8d bc 24 00 01 00 	lea    0x100(%rsp),%rdi
  401130:	00 
  401131:	e8 a9 1a 00 00       	callq  402bdf <init_driver>
  401136:	85 c0                	test   %eax,%eax
  401138:	0f 89 5a ff ff ff    	jns    401098 <initialize_target+0x95>
  40113e:	48 8d 94 24 00 01 00 	lea    0x100(%rsp),%rdx
  401145:	00 
  401146:	48 8d 35 63 1f 00 00 	lea    0x1f63(%rip),%rsi        # 4030b0 <_IO_stdin_used+0x160>
  40114d:	bf 01 00 00 00       	mov    $0x1,%edi
  401152:	b8 00 00 00 00       	mov    $0x0,%eax
  401157:	e8 84 fc ff ff       	callq  400de0 <__printf_chk@plt>
  40115c:	bf 08 00 00 00       	mov    $0x8,%edi
  401161:	e8 ca fc ff ff       	callq  400e30 <exit@plt>
  401166:	48 89 e2             	mov    %rsp,%rdx
  401169:	48 8d 35 00 1f 00 00 	lea    0x1f00(%rip),%rsi        # 403070 <_IO_stdin_used+0x120>
  401170:	bf 01 00 00 00       	mov    $0x1,%edi
  401175:	b8 00 00 00 00       	mov    $0x0,%eax
  40117a:	e8 61 fc ff ff       	callq  400de0 <__printf_chk@plt>
  40117f:	bf 08 00 00 00       	mov    $0x8,%edi
  401184:	e8 a7 fc ff ff       	callq  400e30 <exit@plt>
  401189:	e8 52 fb ff ff       	callq  400ce0 <__stack_chk_fail@plt>

000000000040118e <main>:
  40118e:	41 55                	push   %r13
  401190:	41 54                	push   %r12
  401192:	55                   	push   %rbp
  401193:	53                   	push   %rbx
  401194:	48 83 ec 08          	sub    $0x8,%rsp
  401198:	41 89 fc             	mov    %edi,%r12d
  40119b:	48 89 f3             	mov    %rsi,%rbx
  40119e:	48 c7 c6 e6 1e 40 00 	mov    $0x401ee6,%rsi
  4011a5:	bf 0b 00 00 00       	mov    $0xb,%edi
  4011aa:	e8 91 fb ff ff       	callq  400d40 <signal@plt>
  4011af:	48 c7 c6 92 1e 40 00 	mov    $0x401e92,%rsi
  4011b6:	bf 07 00 00 00       	mov    $0x7,%edi
  4011bb:	e8 80 fb ff ff       	callq  400d40 <signal@plt>
  4011c0:	48 c7 c6 3a 1f 40 00 	mov    $0x401f3a,%rsi
  4011c7:	bf 04 00 00 00       	mov    $0x4,%edi
  4011cc:	e8 6f fb ff ff       	callq  400d40 <signal@plt>
  4011d1:	83 3d 34 43 20 00 00 	cmpl   $0x0,0x204334(%rip)        # 60550c <is_checker>
  4011d8:	75 20                	jne    4011fa <main+0x6c>
  4011da:	48 8d 2d 5e 1f 00 00 	lea    0x1f5e(%rip),%rbp        # 40313f <_IO_stdin_used+0x1ef>
  4011e1:	48 8b 05 b8 42 20 00 	mov    0x2042b8(%rip),%rax        # 6054a0 <stdin@@GLIBC_2.2.5>
  4011e8:	48 89 05 01 43 20 00 	mov    %rax,0x204301(%rip)        # 6054f0 <infile>
  4011ef:	41 bd 00 00 00 00    	mov    $0x0,%r13d
  4011f5:	e9 8a 00 00 00       	jmpq   401284 <main+0xf6>
  4011fa:	48 c7 c6 8e 1f 40 00 	mov    $0x401f8e,%rsi
  401201:	bf 0e 00 00 00       	mov    $0xe,%edi
  401206:	e8 35 fb ff ff       	callq  400d40 <signal@plt>
  40120b:	bf 05 00 00 00       	mov    $0x5,%edi
  401210:	e8 fb fa ff ff       	callq  400d10 <alarm@plt>
  401215:	48 8d 2d 28 1f 00 00 	lea    0x1f28(%rip),%rbp        # 403144 <_IO_stdin_used+0x1f4>
  40121c:	eb c3                	jmp    4011e1 <main+0x53>
  40121e:	48 8b 3b             	mov    (%rbx),%rdi
  401221:	e8 41 fd ff ff       	callq  400f67 <usage>
  401226:	48 8d 35 4d 21 00 00 	lea    0x214d(%rip),%rsi        # 40337a <_IO_stdin_used+0x42a>
  40122d:	48 8b 3d 74 42 20 00 	mov    0x204274(%rip),%rdi        # 6054a8 <optarg@@GLIBC_2.2.5>
  401234:	e8 b7 fb ff ff       	callq  400df0 <fopen@plt>
  401239:	48 89 05 b0 42 20 00 	mov    %rax,0x2042b0(%rip)        # 6054f0 <infile>
  401240:	48 85 c0             	test   %rax,%rax
  401243:	75 3f                	jne    401284 <main+0xf6>
  401245:	48 8b 0d 5c 42 20 00 	mov    0x20425c(%rip),%rcx        # 6054a8 <optarg@@GLIBC_2.2.5>
  40124c:	48 8d 15 f9 1e 00 00 	lea    0x1ef9(%rip),%rdx        # 40314c <_IO_stdin_used+0x1fc>
  401253:	be 01 00 00 00       	mov    $0x1,%esi
  401258:	48 8b 3d 61 42 20 00 	mov    0x204261(%rip),%rdi        # 6054c0 <stderr@@GLIBC_2.2.5>
  40125f:	e8 ec fb ff ff       	callq  400e50 <__fprintf_chk@plt>
  401264:	b8 01 00 00 00       	mov    $0x1,%eax
  401269:	e9 c4 00 00 00       	jmpq   401332 <main+0x1a4>
  40126e:	ba 10 00 00 00       	mov    $0x10,%edx
  401273:	be 00 00 00 00       	mov    $0x0,%esi
  401278:	48 8b 3d 29 42 20 00 	mov    0x204229(%rip),%rdi        # 6054a8 <optarg@@GLIBC_2.2.5>
  40127f:	e8 8c fb ff ff       	callq  400e10 <strtoul@plt>
  401284:	48 89 ea             	mov    %rbp,%rdx
  401287:	48 89 de             	mov    %rbx,%rsi
  40128a:	44 89 e7             	mov    %r12d,%edi
  40128d:	e8 6e fb ff ff       	callq  400e00 <getopt@plt>
  401292:	3c ff                	cmp    $0xff,%al
  401294:	74 62                	je     4012f8 <main+0x16a>
  401296:	0f be d0             	movsbl %al,%edx
  401299:	83 e8 61             	sub    $0x61,%eax
  40129c:	3c 10                	cmp    $0x10,%al
  40129e:	77 3a                	ja     4012da <main+0x14c>
  4012a0:	0f b6 c0             	movzbl %al,%eax
  4012a3:	48 8d 0d e2 1e 00 00 	lea    0x1ee2(%rip),%rcx        # 40318c <_IO_stdin_used+0x23c>
  4012aa:	48 63 04 81          	movslq (%rcx,%rax,4),%rax
  4012ae:	48 01 c8             	add    %rcx,%rax
  4012b1:	ff e0                	jmpq   *%rax
  4012b3:	ba 0a 00 00 00       	mov    $0xa,%edx
  4012b8:	be 00 00 00 00       	mov    $0x0,%esi
  4012bd:	48 8b 3d e4 41 20 00 	mov    0x2041e4(%rip),%rdi        # 6054a8 <optarg@@GLIBC_2.2.5>
  4012c4:	e8 a7 fa ff ff       	callq  400d70 <strtol@plt>
  4012c9:	41 89 c5             	mov    %eax,%r13d
  4012cc:	eb b6                	jmp    401284 <main+0xf6>
  4012ce:	c7 05 20 42 20 00 00 	movl   $0x0,0x204220(%rip)        # 6054f8 <notify>
  4012d5:	00 00 00 
  4012d8:	eb aa                	jmp    401284 <main+0xf6>
  4012da:	48 8d 35 88 1e 00 00 	lea    0x1e88(%rip),%rsi        # 403169 <_IO_stdin_used+0x219>
  4012e1:	bf 01 00 00 00       	mov    $0x1,%edi
  4012e6:	b8 00 00 00 00       	mov    $0x0,%eax
  4012eb:	e8 f0 fa ff ff       	callq  400de0 <__printf_chk@plt>
  4012f0:	48 8b 3b             	mov    (%rbx),%rdi
  4012f3:	e8 6f fc ff ff       	callq  400f67 <usage>
  4012f8:	be 01 00 00 00       	mov    $0x1,%esi
  4012fd:	44 89 ef             	mov    %r13d,%edi
  401300:	e8 fe fc ff ff       	callq  401003 <initialize_target>
  401305:	8b 15 fd 41 20 00    	mov    0x2041fd(%rip),%edx        # 605508 <cookie>
  40130b:	48 8d 35 6a 1e 00 00 	lea    0x1e6a(%rip),%rsi        # 40317c <_IO_stdin_used+0x22c>
  401312:	bf 01 00 00 00       	mov    $0x1,%edi
  401317:	b8 00 00 00 00       	mov    $0x0,%eax
  40131c:	e8 bf fa ff ff       	callq  400de0 <__printf_chk@plt>
  401321:	48 8b 3d 58 41 20 00 	mov    0x204158(%rip),%rdi        # 605480 <buf_offset>
  401328:	e8 b8 0c 00 00       	callq  401fe5 <launch>
  40132d:	b8 00 00 00 00       	mov    $0x0,%eax
  401332:	48 83 c4 08          	add    $0x8,%rsp
  401336:	5b                   	pop    %rbx
  401337:	5d                   	pop    %rbp
  401338:	41 5c                	pop    %r12
  40133a:	41 5d                	pop    %r13
  40133c:	c3                   	retq   

000000000040133d <scramble>:
  40133d:	48 83 ec 38          	sub    $0x38,%rsp
  401341:	64 48 8b 04 25 28 00 	mov    %fs:0x28,%rax
  401348:	00 00 
  40134a:	48 89 44 24 28       	mov    %rax,0x28(%rsp)
  40134f:	31 c0                	xor    %eax,%eax
  401351:	eb 10                	jmp    401363 <scramble+0x26>
  401353:	69 d0 c0 86 00 00    	imul   $0x86c0,%eax,%edx
  401359:	01 fa                	add    %edi,%edx
  40135b:	89 c1                	mov    %eax,%ecx
  40135d:	89 14 8c             	mov    %edx,(%rsp,%rcx,4)
  401360:	83 c0 01             	add    $0x1,%eax
  401363:	83 f8 09             	cmp    $0x9,%eax
  401366:	76 eb                	jbe    401353 <scramble+0x16>
  401368:	8b 44 24 10          	mov    0x10(%rsp),%eax
  40136c:	69 c0 b5 64 00 00    	imul   $0x64b5,%eax,%eax
  401372:	89 44 24 10          	mov    %eax,0x10(%rsp)
  401376:	8b 04 24             	mov    (%rsp),%eax
  401379:	69 c0 ec 15 00 00    	imul   $0x15ec,%eax,%eax
  40137f:	89 04 24             	mov    %eax,(%rsp)
  401382:	8b 44 24 08          	mov    0x8(%rsp),%eax
  401386:	69 c0 fe 76 00 00    	imul   $0x76fe,%eax,%eax
  40138c:	89 44 24 08          	mov    %eax,0x8(%rsp)
  401390:	8b 44 24 14          	mov    0x14(%rsp),%eax
  401394:	69 c0 df c4 00 00    	imul   $0xc4df,%eax,%eax
  40139a:	89 44 24 14          	mov    %eax,0x14(%rsp)
  40139e:	8b 44 24 20          	mov    0x20(%rsp),%eax
  4013a2:	69 c0 c8 e4 00 00    	imul   $0xe4c8,%eax,%eax
  4013a8:	89 44 24 20          	mov    %eax,0x20(%rsp)
  4013ac:	8b 44 24 10          	mov    0x10(%rsp),%eax
  4013b0:	69 c0 4c 57 00 00    	imul   $0x574c,%eax,%eax
  4013b6:	89 44 24 10          	mov    %eax,0x10(%rsp)
  4013ba:	8b 44 24 10          	mov    0x10(%rsp),%eax
  4013be:	69 c0 35 8c 00 00    	imul   $0x8c35,%eax,%eax
  4013c4:	89 44 24 10          	mov    %eax,0x10(%rsp)
  4013c8:	8b 44 24 18          	mov    0x18(%rsp),%eax
  4013cc:	69 c0 a9 fa 00 00    	imul   $0xfaa9,%eax,%eax
  4013d2:	89 44 24 18          	mov    %eax,0x18(%rsp)
  4013d6:	8b 44 24 18          	mov    0x18(%rsp),%eax
  4013da:	69 c0 d7 8c 00 00    	imul   $0x8cd7,%eax,%eax
  4013e0:	89 44 24 18          	mov    %eax,0x18(%rsp)
  4013e4:	8b 44 24 1c          	mov    0x1c(%rsp),%eax
  4013e8:	69 c0 72 f9 00 00    	imul   $0xf972,%eax,%eax
  4013ee:	89 44 24 1c          	mov    %eax,0x1c(%rsp)
  4013f2:	8b 44 24 0c          	mov    0xc(%rsp),%eax
  4013f6:	69 c0 2b 47 00 00    	imul   $0x472b,%eax,%eax
  4013fc:	89 44 24 0c          	mov    %eax,0xc(%rsp)
  401400:	8b 04 24             	mov    (%rsp),%eax
  401403:	69 c0 37 35 00 00    	imul   $0x3537,%eax,%eax
  401409:	89 04 24             	mov    %eax,(%rsp)
  40140c:	8b 44 24 1c          	mov    0x1c(%rsp),%eax
  401410:	69 c0 92 1e 00 00    	imul   $0x1e92,%eax,%eax
  401416:	89 44 24 1c          	mov    %eax,0x1c(%rsp)
  40141a:	8b 44 24 20          	mov    0x20(%rsp),%eax
  40141e:	69 c0 31 33 00 00    	imul   $0x3331,%eax,%eax
  401424:	89 44 24 20          	mov    %eax,0x20(%rsp)
  401428:	8b 44 24 10          	mov    0x10(%rsp),%eax
  40142c:	69 c0 9f f2 00 00    	imul   $0xf29f,%eax,%eax
  401432:	89 44 24 10          	mov    %eax,0x10(%rsp)
  401436:	8b 44 24 20          	mov    0x20(%rsp),%eax
  40143a:	69 c0 16 69 00 00    	imul   $0x6916,%eax,%eax
  401440:	89 44 24 20          	mov    %eax,0x20(%rsp)
  401444:	8b 44 24 20          	mov    0x20(%rsp),%eax
  401448:	69 c0 8f 20 00 00    	imul   $0x208f,%eax,%eax
  40144e:	89 44 24 20          	mov    %eax,0x20(%rsp)
  401452:	8b 44 24 0c          	mov    0xc(%rsp),%eax
  401456:	69 c0 8c 90 00 00    	imul   $0x908c,%eax,%eax
  40145c:	89 44 24 0c          	mov    %eax,0xc(%rsp)
  401460:	8b 44 24 10          	mov    0x10(%rsp),%eax
  401464:	69 c0 30 81 00 00    	imul   $0x8130,%eax,%eax
  40146a:	89 44 24 10          	mov    %eax,0x10(%rsp)
  40146e:	8b 44 24 20          	mov    0x20(%rsp),%eax
  401472:	69 c0 19 f1 00 00    	imul   $0xf119,%eax,%eax
  401478:	89 44 24 20          	mov    %eax,0x20(%rsp)
  40147c:	8b 44 24 24          	mov    0x24(%rsp),%eax
  401480:	69 c0 40 3e 00 00    	imul   $0x3e40,%eax,%eax
  401486:	89 44 24 24          	mov    %eax,0x24(%rsp)
  40148a:	8b 44 24 18          	mov    0x18(%rsp),%eax
  40148e:	69 c0 f0 98 00 00    	imul   $0x98f0,%eax,%eax
  401494:	89 44 24 18          	mov    %eax,0x18(%rsp)
  401498:	8b 44 24 14          	mov    0x14(%rsp),%eax
  40149c:	69 c0 1b 7c 00 00    	imul   $0x7c1b,%eax,%eax
  4014a2:	89 44 24 14          	mov    %eax,0x14(%rsp)
  4014a6:	8b 44 24 18          	mov    0x18(%rsp),%eax
  4014aa:	69 c0 ea f0 00 00    	imul   $0xf0ea,%eax,%eax
  4014b0:	89 44 24 18          	mov    %eax,0x18(%rsp)
  4014b4:	8b 44 24 08          	mov    0x8(%rsp),%eax
  4014b8:	69 c0 f9 52 00 00    	imul   $0x52f9,%eax,%eax
  4014be:	89 44 24 08          	mov    %eax,0x8(%rsp)
  4014c2:	8b 04 24             	mov    (%rsp),%eax
  4014c5:	69 c0 4e 7c 00 00    	imul   $0x7c4e,%eax,%eax
  4014cb:	89 04 24             	mov    %eax,(%rsp)
  4014ce:	8b 44 24 14          	mov    0x14(%rsp),%eax
  4014d2:	69 c0 71 71 00 00    	imul   $0x7171,%eax,%eax
  4014d8:	89 44 24 14          	mov    %eax,0x14(%rsp)
  4014dc:	8b 44 24 10          	mov    0x10(%rsp),%eax
  4014e0:	69 c0 78 d1 00 00    	imul   $0xd178,%eax,%eax
  4014e6:	89 44 24 10          	mov    %eax,0x10(%rsp)
  4014ea:	8b 44 24 10          	mov    0x10(%rsp),%eax
  4014ee:	69 c0 27 64 00 00    	imul   $0x6427,%eax,%eax
  4014f4:	89 44 24 10          	mov    %eax,0x10(%rsp)
  4014f8:	8b 44 24 18          	mov    0x18(%rsp),%eax
  4014fc:	69 c0 5a 72 00 00    	imul   $0x725a,%eax,%eax
  401502:	89 44 24 18          	mov    %eax,0x18(%rsp)
  401506:	8b 44 24 08          	mov    0x8(%rsp),%eax
  40150a:	69 c0 ce 96 00 00    	imul   $0x96ce,%eax,%eax
  401510:	89 44 24 08          	mov    %eax,0x8(%rsp)
  401514:	8b 44 24 24          	mov    0x24(%rsp),%eax
  401518:	69 c0 1a ae 00 00    	imul   $0xae1a,%eax,%eax
  40151e:	89 44 24 24          	mov    %eax,0x24(%rsp)
  401522:	8b 44 24 18          	mov    0x18(%rsp),%eax
  401526:	69 c0 72 5a 00 00    	imul   $0x5a72,%eax,%eax
  40152c:	89 44 24 18          	mov    %eax,0x18(%rsp)
  401530:	8b 44 24 10          	mov    0x10(%rsp),%eax
  401534:	69 c0 eb 4e 00 00    	imul   $0x4eeb,%eax,%eax
  40153a:	89 44 24 10          	mov    %eax,0x10(%rsp)
  40153e:	8b 44 24 10          	mov    0x10(%rsp),%eax
  401542:	69 c0 12 94 00 00    	imul   $0x9412,%eax,%eax
  401548:	89 44 24 10          	mov    %eax,0x10(%rsp)
  40154c:	8b 44 24 1c          	mov    0x1c(%rsp),%eax
  401550:	69 c0 9b 41 00 00    	imul   $0x419b,%eax,%eax
  401556:	89 44 24 1c          	mov    %eax,0x1c(%rsp)
  40155a:	8b 44 24 1c          	mov    0x1c(%rsp),%eax
  40155e:	69 c0 69 88 00 00    	imul   $0x8869,%eax,%eax
  401564:	89 44 24 1c          	mov    %eax,0x1c(%rsp)
  401568:	8b 44 24 08          	mov    0x8(%rsp),%eax
  40156c:	69 c0 c9 9c 00 00    	imul   $0x9cc9,%eax,%eax
  401572:	89 44 24 08          	mov    %eax,0x8(%rsp)
  401576:	8b 44 24 14          	mov    0x14(%rsp),%eax
  40157a:	69 c0 25 6e 00 00    	imul   $0x6e25,%eax,%eax
  401580:	89 44 24 14          	mov    %eax,0x14(%rsp)
  401584:	8b 44 24 18          	mov    0x18(%rsp),%eax
  401588:	69 c0 76 0d 00 00    	imul   $0xd76,%eax,%eax
  40158e:	89 44 24 18          	mov    %eax,0x18(%rsp)
  401592:	8b 44 24 18          	mov    0x18(%rsp),%eax
  401596:	69 c0 0f 78 00 00    	imul   $0x780f,%eax,%eax
  40159c:	89 44 24 18          	mov    %eax,0x18(%rsp)
  4015a0:	8b 44 24 1c          	mov    0x1c(%rsp),%eax
  4015a4:	69 c0 43 5b 00 00    	imul   $0x5b43,%eax,%eax
  4015aa:	89 44 24 1c          	mov    %eax,0x1c(%rsp)
  4015ae:	8b 44 24 24          	mov    0x24(%rsp),%eax
  4015b2:	69 c0 4a 3b 00 00    	imul   $0x3b4a,%eax,%eax
  4015b8:	89 44 24 24          	mov    %eax,0x24(%rsp)
  4015bc:	8b 44 24 1c          	mov    0x1c(%rsp),%eax
  4015c0:	69 c0 85 79 00 00    	imul   $0x7985,%eax,%eax
  4015c6:	89 44 24 1c          	mov    %eax,0x1c(%rsp)
  4015ca:	8b 44 24 24          	mov    0x24(%rsp),%eax
  4015ce:	69 c0 65 31 00 00    	imul   $0x3165,%eax,%eax
  4015d4:	89 44 24 24          	mov    %eax,0x24(%rsp)
  4015d8:	8b 44 24 18          	mov    0x18(%rsp),%eax
  4015dc:	69 c0 37 f6 00 00    	imul   $0xf637,%eax,%eax
  4015e2:	89 44 24 18          	mov    %eax,0x18(%rsp)
  4015e6:	8b 44 24 24          	mov    0x24(%rsp),%eax
  4015ea:	69 c0 4f c7 00 00    	imul   $0xc74f,%eax,%eax
  4015f0:	89 44 24 24          	mov    %eax,0x24(%rsp)
  4015f4:	8b 44 24 0c          	mov    0xc(%rsp),%eax
  4015f8:	69 c0 91 7f 00 00    	imul   $0x7f91,%eax,%eax
  4015fe:	89 44 24 0c          	mov    %eax,0xc(%rsp)
  401602:	8b 44 24 08          	mov    0x8(%rsp),%eax
  401606:	69 c0 f7 e2 00 00    	imul   $0xe2f7,%eax,%eax
  40160c:	89 44 24 08          	mov    %eax,0x8(%rsp)
  401610:	8b 04 24             	mov    (%rsp),%eax
  401613:	69 c0 63 fd 00 00    	imul   $0xfd63,%eax,%eax
  401619:	89 04 24             	mov    %eax,(%rsp)
  40161c:	8b 44 24 08          	mov    0x8(%rsp),%eax
  401620:	69 c0 80 0e 00 00    	imul   $0xe80,%eax,%eax
  401626:	89 44 24 08          	mov    %eax,0x8(%rsp)
  40162a:	8b 44 24 14          	mov    0x14(%rsp),%eax
  40162e:	69 c0 5d 49 00 00    	imul   $0x495d,%eax,%eax
  401634:	89 44 24 14          	mov    %eax,0x14(%rsp)
  401638:	8b 04 24             	mov    (%rsp),%eax
  40163b:	69 c0 8a 19 00 00    	imul   $0x198a,%eax,%eax
  401641:	89 04 24             	mov    %eax,(%rsp)
  401644:	8b 44 24 1c          	mov    0x1c(%rsp),%eax
  401648:	69 c0 6d 9b 00 00    	imul   $0x9b6d,%eax,%eax
  40164e:	89 44 24 1c          	mov    %eax,0x1c(%rsp)
  401652:	8b 44 24 20          	mov    0x20(%rsp),%eax
  401656:	69 c0 d9 73 00 00    	imul   $0x73d9,%eax,%eax
  40165c:	89 44 24 20          	mov    %eax,0x20(%rsp)
  401660:	8b 44 24 20          	mov    0x20(%rsp),%eax
  401664:	69 c0 cd 48 00 00    	imul   $0x48cd,%eax,%eax
  40166a:	89 44 24 20          	mov    %eax,0x20(%rsp)
  40166e:	8b 44 24 08          	mov    0x8(%rsp),%eax
  401672:	69 c0 a8 32 00 00    	imul   $0x32a8,%eax,%eax
  401678:	89 44 24 08          	mov    %eax,0x8(%rsp)
  40167c:	8b 44 24 20          	mov    0x20(%rsp),%eax
  401680:	69 c0 69 d5 00 00    	imul   $0xd569,%eax,%eax
  401686:	89 44 24 20          	mov    %eax,0x20(%rsp)
  40168a:	8b 04 24             	mov    (%rsp),%eax
  40168d:	69 c0 cc d0 00 00    	imul   $0xd0cc,%eax,%eax
  401693:	89 04 24             	mov    %eax,(%rsp)
  401696:	8b 44 24 04          	mov    0x4(%rsp),%eax
  40169a:	69 c0 63 0d 00 00    	imul   $0xd63,%eax,%eax
  4016a0:	89 44 24 04          	mov    %eax,0x4(%rsp)
  4016a4:	8b 04 24             	mov    (%rsp),%eax
  4016a7:	69 c0 cd 3a 00 00    	imul   $0x3acd,%eax,%eax
  4016ad:	89 04 24             	mov    %eax,(%rsp)
  4016b0:	8b 44 24 08          	mov    0x8(%rsp),%eax
  4016b4:	69 c0 65 ca 00 00    	imul   $0xca65,%eax,%eax
  4016ba:	89 44 24 08          	mov    %eax,0x8(%rsp)
  4016be:	8b 44 24 1c          	mov    0x1c(%rsp),%eax
  4016c2:	69 c0 eb a7 00 00    	imul   $0xa7eb,%eax,%eax
  4016c8:	89 44 24 1c          	mov    %eax,0x1c(%rsp)
  4016cc:	8b 44 24 24          	mov    0x24(%rsp),%eax
  4016d0:	69 c0 dd 23 00 00    	imul   $0x23dd,%eax,%eax
  4016d6:	89 44 24 24          	mov    %eax,0x24(%rsp)
  4016da:	8b 44 24 0c          	mov    0xc(%rsp),%eax
  4016de:	69 c0 73 18 00 00    	imul   $0x1873,%eax,%eax
  4016e4:	89 44 24 0c          	mov    %eax,0xc(%rsp)
  4016e8:	8b 44 24 08          	mov    0x8(%rsp),%eax
  4016ec:	69 c0 ed 01 00 00    	imul   $0x1ed,%eax,%eax
  4016f2:	89 44 24 08          	mov    %eax,0x8(%rsp)
  4016f6:	8b 44 24 20          	mov    0x20(%rsp),%eax
  4016fa:	69 c0 3f 60 00 00    	imul   $0x603f,%eax,%eax
  401700:	89 44 24 20          	mov    %eax,0x20(%rsp)
  401704:	8b 44 24 24          	mov    0x24(%rsp),%eax
  401708:	69 c0 dd bd 00 00    	imul   $0xbddd,%eax,%eax
  40170e:	89 44 24 24          	mov    %eax,0x24(%rsp)
  401712:	8b 44 24 14          	mov    0x14(%rsp),%eax
  401716:	69 c0 70 31 00 00    	imul   $0x3170,%eax,%eax
  40171c:	89 44 24 14          	mov    %eax,0x14(%rsp)
  401720:	8b 44 24 1c          	mov    0x1c(%rsp),%eax
  401724:	69 c0 78 01 00 00    	imul   $0x178,%eax,%eax
  40172a:	89 44 24 1c          	mov    %eax,0x1c(%rsp)
  40172e:	8b 44 24 08          	mov    0x8(%rsp),%eax
  401732:	69 c0 2f 02 00 00    	imul   $0x22f,%eax,%eax
  401738:	89 44 24 08          	mov    %eax,0x8(%rsp)
  40173c:	8b 44 24 24          	mov    0x24(%rsp),%eax
  401740:	69 c0 31 91 00 00    	imul   $0x9131,%eax,%eax
  401746:	89 44 24 24          	mov    %eax,0x24(%rsp)
  40174a:	8b 44 24 0c          	mov    0xc(%rsp),%eax
  40174e:	69 c0 56 ee 00 00    	imul   $0xee56,%eax,%eax
  401754:	89 44 24 0c          	mov    %eax,0xc(%rsp)
  401758:	8b 44 24 08          	mov    0x8(%rsp),%eax
  40175c:	69 c0 ca a2 00 00    	imul   $0xa2ca,%eax,%eax
  401762:	89 44 24 08          	mov    %eax,0x8(%rsp)
  401766:	8b 44 24 14          	mov    0x14(%rsp),%eax
  40176a:	69 c0 89 b5 00 00    	imul   $0xb589,%eax,%eax
  401770:	89 44 24 14          	mov    %eax,0x14(%rsp)
  401774:	8b 44 24 1c          	mov    0x1c(%rsp),%eax
  401778:	69 c0 54 c1 00 00    	imul   $0xc154,%eax,%eax
  40177e:	89 44 24 1c          	mov    %eax,0x1c(%rsp)
  401782:	8b 44 24 0c          	mov    0xc(%rsp),%eax
  401786:	69 c0 c8 b3 00 00    	imul   $0xb3c8,%eax,%eax
  40178c:	89 44 24 0c          	mov    %eax,0xc(%rsp)
  401790:	8b 44 24 1c          	mov    0x1c(%rsp),%eax
  401794:	69 c0 73 f2 00 00    	imul   $0xf273,%eax,%eax
  40179a:	89 44 24 1c          	mov    %eax,0x1c(%rsp)
  40179e:	8b 44 24 14          	mov    0x14(%rsp),%eax
  4017a2:	69 c0 b0 d5 00 00    	imul   $0xd5b0,%eax,%eax
  4017a8:	89 44 24 14          	mov    %eax,0x14(%rsp)
  4017ac:	8b 44 24 10          	mov    0x10(%rsp),%eax
  4017b0:	69 c0 96 e6 00 00    	imul   $0xe696,%eax,%eax
  4017b6:	89 44 24 10          	mov    %eax,0x10(%rsp)
  4017ba:	8b 44 24 1c          	mov    0x1c(%rsp),%eax
  4017be:	69 c0 92 37 00 00    	imul   $0x3792,%eax,%eax
  4017c4:	89 44 24 1c          	mov    %eax,0x1c(%rsp)
  4017c8:	8b 44 24 1c          	mov    0x1c(%rsp),%eax
  4017cc:	69 c0 18 15 00 00    	imul   $0x1518,%eax,%eax
  4017d2:	89 44 24 1c          	mov    %eax,0x1c(%rsp)
  4017d6:	8b 44 24 14          	mov    0x14(%rsp),%eax
  4017da:	69 c0 cd 33 00 00    	imul   $0x33cd,%eax,%eax
  4017e0:	89 44 24 14          	mov    %eax,0x14(%rsp)
  4017e4:	8b 44 24 14          	mov    0x14(%rsp),%eax
  4017e8:	69 c0 9b 11 00 00    	imul   $0x119b,%eax,%eax
  4017ee:	89 44 24 14          	mov    %eax,0x14(%rsp)
  4017f2:	8b 44 24 0c          	mov    0xc(%rsp),%eax
  4017f6:	69 c0 40 2c 00 00    	imul   $0x2c40,%eax,%eax
  4017fc:	89 44 24 0c          	mov    %eax,0xc(%rsp)
  401800:	8b 44 24 1c          	mov    0x1c(%rsp),%eax
  401804:	69 c0 86 0a 00 00    	imul   $0xa86,%eax,%eax
  40180a:	89 44 24 1c          	mov    %eax,0x1c(%rsp)
  40180e:	8b 44 24 08          	mov    0x8(%rsp),%eax
  401812:	69 c0 59 5d 00 00    	imul   $0x5d59,%eax,%eax
  401818:	89 44 24 08          	mov    %eax,0x8(%rsp)
  40181c:	8b 44 24 10          	mov    0x10(%rsp),%eax
  401820:	69 c0 47 63 00 00    	imul   $0x6347,%eax,%eax
  401826:	89 44 24 10          	mov    %eax,0x10(%rsp)
  40182a:	8b 44 24 1c          	mov    0x1c(%rsp),%eax
  40182e:	69 c0 53 02 00 00    	imul   $0x253,%eax,%eax
  401834:	89 44 24 1c          	mov    %eax,0x1c(%rsp)
  401838:	8b 44 24 08          	mov    0x8(%rsp),%eax
  40183c:	69 c0 d2 0a 00 00    	imul   $0xad2,%eax,%eax
  401842:	89 44 24 08          	mov    %eax,0x8(%rsp)
  401846:	8b 44 24 08          	mov    0x8(%rsp),%eax
  40184a:	69 c0 3e b6 00 00    	imul   $0xb63e,%eax,%eax
  401850:	89 44 24 08          	mov    %eax,0x8(%rsp)
  401854:	8b 04 24             	mov    (%rsp),%eax
  401857:	69 c0 33 a8 00 00    	imul   $0xa833,%eax,%eax
  40185d:	89 04 24             	mov    %eax,(%rsp)
  401860:	ba 00 00 00 00       	mov    $0x0,%edx
  401865:	b8 00 00 00 00       	mov    $0x0,%eax
  40186a:	eb 0a                	jmp    401876 <scramble+0x539>
  40186c:	89 d1                	mov    %edx,%ecx
  40186e:	8b 0c 8c             	mov    (%rsp,%rcx,4),%ecx
  401871:	01 c8                	add    %ecx,%eax
  401873:	83 c2 01             	add    $0x1,%edx
  401876:	83 fa 09             	cmp    $0x9,%edx
  401879:	76 f1                	jbe    40186c <scramble+0x52f>
  40187b:	48 8b 74 24 28       	mov    0x28(%rsp),%rsi
  401880:	64 48 33 34 25 28 00 	xor    %fs:0x28,%rsi
  401887:	00 00 
  401889:	75 05                	jne    401890 <scramble+0x553>
  40188b:	48 83 c4 38          	add    $0x38,%rsp
  40188f:	c3                   	retq   
  401890:	e8 4b f4 ff ff       	callq  400ce0 <__stack_chk_fail@plt>

0000000000401895 <getbuf>:
  401895:	48 83 ec 38          	sub    $0x38,%rsp
  401899:	48 89 e7             	mov    %rsp,%rdi
  40189c:	e8 b0 03 00 00       	callq  401c51 <Gets>
  4018a1:	b8 01 00 00 00       	mov    $0x1,%eax
  4018a6:	48 83 c4 38          	add    $0x38,%rsp
  4018aa:	c3                   	retq   

00000000004018ab <touch1>:
  4018ab:	48 83 ec 08          	sub    $0x8,%rsp
  4018af:	c7 05 47 3c 20 00 01 	movl   $0x1,0x203c47(%rip)        # 605500 <vlevel>
  4018b6:	00 00 00 
  4018b9:	48 8d 3d 5e 19 00 00 	lea    0x195e(%rip),%rdi        # 40321e <_IO_stdin_used+0x2ce>
  4018c0:	e8 fb f3 ff ff       	callq  400cc0 <puts@plt>
  4018c5:	bf 01 00 00 00       	mov    $0x1,%edi
  4018ca:	e8 cb 04 00 00       	callq  401d9a <validate>
  4018cf:	bf 00 00 00 00       	mov    $0x0,%edi
  4018d4:	e8 57 f5 ff ff       	callq  400e30 <exit@plt>

00000000004018d9 <touch2>:
  4018d9:	48 83 ec 08          	sub    $0x8,%rsp
  4018dd:	89 fa                	mov    %edi,%edx
  4018df:	c7 05 17 3c 20 00 02 	movl   $0x2,0x203c17(%rip)        # 605500 <vlevel>
  4018e6:	00 00 00 
  4018e9:	39 3d 19 3c 20 00    	cmp    %edi,0x203c19(%rip)        # 605508 <cookie>
  4018ef:	74 2a                	je     40191b <touch2+0x42>
  4018f1:	48 8d 35 70 19 00 00 	lea    0x1970(%rip),%rsi        # 403268 <_IO_stdin_used+0x318>
  4018f8:	bf 01 00 00 00       	mov    $0x1,%edi
  4018fd:	b8 00 00 00 00       	mov    $0x0,%eax
  401902:	e8 d9 f4 ff ff       	callq  400de0 <__printf_chk@plt>
  401907:	bf 02 00 00 00       	mov    $0x2,%edi
  40190c:	e8 59 05 00 00       	callq  401e6a <fail>
  401911:	bf 00 00 00 00       	mov    $0x0,%edi
  401916:	e8 15 f5 ff ff       	callq  400e30 <exit@plt>
  40191b:	48 8d 35 1e 19 00 00 	lea    0x191e(%rip),%rsi        # 403240 <_IO_stdin_used+0x2f0>
  401922:	bf 01 00 00 00       	mov    $0x1,%edi
  401927:	b8 00 00 00 00       	mov    $0x0,%eax
  40192c:	e8 af f4 ff ff       	callq  400de0 <__printf_chk@plt>
  401931:	bf 02 00 00 00       	mov    $0x2,%edi
  401936:	e8 5f 04 00 00       	callq  401d9a <validate>
  40193b:	eb d4                	jmp    401911 <touch2+0x38>

000000000040193d <hexmatch>:
  40193d:	41 54                	push   %r12
  40193f:	55                   	push   %rbp
  401940:	53                   	push   %rbx
  401941:	48 83 c4 80          	add    $0xffffffffffffff80,%rsp
  401945:	89 fd                	mov    %edi,%ebp
  401947:	48 89 f3             	mov    %rsi,%rbx
  40194a:	64 48 8b 04 25 28 00 	mov    %fs:0x28,%rax
  401951:	00 00 
  401953:	48 89 44 24 78       	mov    %rax,0x78(%rsp)
  401958:	31 c0                	xor    %eax,%eax
  40195a:	e8 41 f4 ff ff       	callq  400da0 <random@plt>
  40195f:	48 89 c1             	mov    %rax,%rcx
  401962:	48 ba 0b d7 a3 70 3d 	movabs $0xa3d70a3d70a3d70b,%rdx
  401969:	0a d7 a3 
  40196c:	48 f7 ea             	imul   %rdx
  40196f:	48 01 ca             	add    %rcx,%rdx
  401972:	48 c1 fa 06          	sar    $0x6,%rdx
  401976:	48 89 c8             	mov    %rcx,%rax
  401979:	48 c1 f8 3f          	sar    $0x3f,%rax
  40197d:	48 29 c2             	sub    %rax,%rdx
  401980:	48 8d 04 92          	lea    (%rdx,%rdx,4),%rax
  401984:	48 8d 14 80          	lea    (%rax,%rax,4),%rdx
  401988:	48 8d 04 95 00 00 00 	lea    0x0(,%rdx,4),%rax
  40198f:	00 
  401990:	48 29 c1             	sub    %rax,%rcx
  401993:	4c 8d 24 0c          	lea    (%rsp,%rcx,1),%r12
  401997:	41 89 e8             	mov    %ebp,%r8d
  40199a:	48 8d 0d 9a 18 00 00 	lea    0x189a(%rip),%rcx        # 40323b <_IO_stdin_used+0x2eb>
  4019a1:	48 c7 c2 ff ff ff ff 	mov    $0xffffffffffffffff,%rdx
  4019a8:	be 01 00 00 00       	mov    $0x1,%esi
  4019ad:	4c 89 e7             	mov    %r12,%rdi
  4019b0:	b8 00 00 00 00       	mov    $0x0,%eax
  4019b5:	e8 a6 f4 ff ff       	callq  400e60 <__sprintf_chk@plt>
  4019ba:	ba 09 00 00 00       	mov    $0x9,%edx
  4019bf:	4c 89 e6             	mov    %r12,%rsi
  4019c2:	48 89 df             	mov    %rbx,%rdi
  4019c5:	e8 d6 f2 ff ff       	callq  400ca0 <strncmp@plt>
  4019ca:	85 c0                	test   %eax,%eax
  4019cc:	0f 94 c0             	sete   %al
  4019cf:	48 8b 5c 24 78       	mov    0x78(%rsp),%rbx
  4019d4:	64 48 33 1c 25 28 00 	xor    %fs:0x28,%rbx
  4019db:	00 00 
  4019dd:	75 0c                	jne    4019eb <hexmatch+0xae>
  4019df:	0f b6 c0             	movzbl %al,%eax
  4019e2:	48 83 ec 80          	sub    $0xffffffffffffff80,%rsp
  4019e6:	5b                   	pop    %rbx
  4019e7:	5d                   	pop    %rbp
  4019e8:	41 5c                	pop    %r12
  4019ea:	c3                   	retq   
  4019eb:	e8 f0 f2 ff ff       	callq  400ce0 <__stack_chk_fail@plt>

00000000004019f0 <touch3>:
  4019f0:	53                   	push   %rbx
  4019f1:	48 89 fb             	mov    %rdi,%rbx
  4019f4:	c7 05 02 3b 20 00 03 	movl   $0x3,0x203b02(%rip)        # 605500 <vlevel>
  4019fb:	00 00 00 
  4019fe:	48 89 fe             	mov    %rdi,%rsi
  401a01:	8b 3d 01 3b 20 00    	mov    0x203b01(%rip),%edi        # 605508 <cookie>
  401a07:	e8 31 ff ff ff       	callq  40193d <hexmatch>
  401a0c:	85 c0                	test   %eax,%eax
  401a0e:	74 2d                	je     401a3d <touch3+0x4d>
  401a10:	48 89 da             	mov    %rbx,%rdx
  401a13:	48 8d 35 76 18 00 00 	lea    0x1876(%rip),%rsi        # 403290 <_IO_stdin_used+0x340>
  401a1a:	bf 01 00 00 00       	mov    $0x1,%edi
  401a1f:	b8 00 00 00 00       	mov    $0x0,%eax
  401a24:	e8 b7 f3 ff ff       	callq  400de0 <__printf_chk@plt>
  401a29:	bf 03 00 00 00       	mov    $0x3,%edi
  401a2e:	e8 67 03 00 00       	callq  401d9a <validate>
  401a33:	bf 00 00 00 00       	mov    $0x0,%edi
  401a38:	e8 f3 f3 ff ff       	callq  400e30 <exit@plt>
  401a3d:	48 89 da             	mov    %rbx,%rdx
  401a40:	48 8d 35 71 18 00 00 	lea    0x1871(%rip),%rsi        # 4032b8 <_IO_stdin_used+0x368>
  401a47:	bf 01 00 00 00       	mov    $0x1,%edi
  401a4c:	b8 00 00 00 00       	mov    $0x0,%eax
  401a51:	e8 8a f3 ff ff       	callq  400de0 <__printf_chk@plt>
  401a56:	bf 03 00 00 00       	mov    $0x3,%edi
  401a5b:	e8 0a 04 00 00       	callq  401e6a <fail>
  401a60:	eb d1                	jmp    401a33 <touch3+0x43>

0000000000401a62 <test>:
  401a62:	48 83 ec 08          	sub    $0x8,%rsp
  401a66:	b8 00 00 00 00       	mov    $0x0,%eax
  401a6b:	e8 25 fe ff ff       	callq  401895 <getbuf>
  401a70:	89 c2                	mov    %eax,%edx
  401a72:	48 8d 35 67 18 00 00 	lea    0x1867(%rip),%rsi        # 4032e0 <_IO_stdin_used+0x390>
  401a79:	bf 01 00 00 00       	mov    $0x1,%edi
  401a7e:	b8 00 00 00 00       	mov    $0x0,%eax
  401a83:	e8 58 f3 ff ff       	callq  400de0 <__printf_chk@plt>
  401a88:	48 83 c4 08          	add    $0x8,%rsp
  401a8c:	c3                   	retq   

0000000000401a8d <start_farm>:
  401a8d:	b8 01 00 00 00       	mov    $0x1,%eax
  401a92:	c3                   	retq   

0000000000401a93 <getval_464>:
  401a93:	b8 58 90 90 c1       	mov    $0xc1909058,%eax
  401a98:	c3                   	retq   

0000000000401a99 <setval_102>:
  401a99:	c7 07 48 89 c7 92    	movl   $0x92c78948,(%rdi)
  401a9f:	c3                   	retq   

0000000000401aa0 <getval_336>:
  401aa0:	b8 48 89 c7 90       	mov    $0x90c78948,%eax
  401aa5:	c3                   	retq   

0000000000401aa6 <getval_434>:
  401aa6:	b8 32 49 89 c7       	mov    $0xc7894932,%eax
  401aab:	c3                   	retq   

0000000000401aac <setval_369>:
  401aac:	c7 07 48 48 89 c7    	movl   $0xc7894848,(%rdi)
  401ab2:	c3                   	retq   

0000000000401ab3 <addval_248>:
  401ab3:	8d 87 58 90 90 c3    	lea    -0x3c6f6fa8(%rdi),%eax
  401ab9:	c3                   	retq   

0000000000401aba <getval_303>:
  401aba:	b8 c4 9a 18 90       	mov    $0x90189ac4,%eax
  401abf:	c3                   	retq   

0000000000401ac0 <setval_214>:
  401ac0:	c7 07 c0 28 52 58    	movl   $0x585228c0,(%rdi)
  401ac6:	c3                   	retq   

0000000000401ac7 <mid_farm>:
  401ac7:	b8 01 00 00 00       	mov    $0x1,%eax
  401acc:	c3                   	retq   

0000000000401acd <add_xy>:
  401acd:	48 8d 04 37          	lea    (%rdi,%rsi,1),%rax
  401ad1:	c3                   	retq   

0000000000401ad2 <getval_287>:
  401ad2:	b8 89 c2 90 c3       	mov    $0xc390c289,%eax
  401ad7:	c3                   	retq   

0000000000401ad8 <getval_416>:
  401ad8:	b8 99 ce 08 c9       	mov    $0xc908ce99,%eax
  401add:	c3                   	retq   

0000000000401ade <getval_148>:
  401ade:	b8 8d d1 08 c0       	mov    $0xc008d18d,%eax
  401ae3:	c3                   	retq   

0000000000401ae4 <setval_393>:
  401ae4:	c7 07 9f 46 81 c2    	movl   $0xc281469f,(%rdi)
  401aea:	c3                   	retq   

0000000000401aeb <addval_247>:
  401aeb:	8d 87 89 ce 38 d2    	lea    -0x2dc73177(%rdi),%eax
  401af1:	c3                   	retq   

0000000000401af2 <addval_314>:
  401af2:	8d 87 09 ce 84 d2    	lea    -0x2d7b31f7(%rdi),%eax
  401af8:	c3                   	retq   

0000000000401af9 <getval_193>:
  401af9:	b8 48 8b e0 c3       	mov    $0xc3e08b48,%eax
  401afe:	c3                   	retq   

0000000000401aff <addval_381>:
  401aff:	8d 87 08 89 e0 c3    	lea    -0x3c1f76f8(%rdi),%eax
  401b05:	c3                   	retq   

0000000000401b06 <setval_271>:
  401b06:	c7 07 48 81 e0 c3    	movl   $0xc3e08148,(%rdi)
  401b0c:	c3                   	retq   

0000000000401b0d <getval_239>:
  401b0d:	b8 48 09 e0 90       	mov    $0x90e00948,%eax
  401b12:	c3                   	retq   

0000000000401b13 <setval_176>:
  401b13:	c7 07 55 89 ce 90    	movl   $0x90ce8955,(%rdi)
  401b19:	c3                   	retq   

0000000000401b1a <addval_439>:
  401b1a:	8d 87 48 89 e0 c3    	lea    -0x3c1f76b8(%rdi),%eax
  401b20:	c3                   	retq   

0000000000401b21 <setval_317>:
  401b21:	c7 07 8d c2 38 db    	movl   $0xdb38c28d,(%rdi)
  401b27:	c3                   	retq   

0000000000401b28 <getval_481>:
  401b28:	b8 89 ce a4 c0       	mov    $0xc0a4ce89,%eax
  401b2d:	c3                   	retq   

0000000000401b2e <addval_244>:
  401b2e:	8d 87 89 c2 48 c0    	lea    -0x3fb73d77(%rdi),%eax
  401b34:	c3                   	retq   

0000000000401b35 <getval_473>:
  401b35:	b8 49 89 e0 90       	mov    $0x90e08949,%eax
  401b3a:	c3                   	retq   

0000000000401b3b <setval_343>:
  401b3b:	c7 07 89 d1 94 d2    	movl   $0xd294d189,(%rdi)
  401b41:	c3                   	retq   

0000000000401b42 <setval_351>:
  401b42:	c7 07 89 ce 18 db    	movl   $0xdb18ce89,(%rdi)
  401b48:	c3                   	retq   

0000000000401b49 <getval_319>:
  401b49:	b8 8b d1 20 d2       	mov    $0xd220d18b,%eax
  401b4e:	c3                   	retq   

0000000000401b4f <getval_206>:
  401b4f:	b8 8b c2 08 db       	mov    $0xdb08c28b,%eax
  401b54:	c3                   	retq   

0000000000401b55 <setval_406>:
  401b55:	c7 07 89 c2 84 db    	movl   $0xdb84c289,(%rdi)
  401b5b:	c3                   	retq   

0000000000401b5c <getval_118>:
  401b5c:	b8 a3 89 d1 91       	mov    $0x91d189a3,%eax
  401b61:	c3                   	retq   

0000000000401b62 <getval_190>:
  401b62:	b8 89 d1 84 c9       	mov    $0xc984d189,%eax
  401b67:	c3                   	retq   

0000000000401b68 <addval_216>:
  401b68:	8d 87 99 ce 84 c0    	lea    -0x3f7b3167(%rdi),%eax
  401b6e:	c3                   	retq   

0000000000401b6f <getval_224>:
  401b6f:	b8 89 c2 a4 d2       	mov    $0xd2a4c289,%eax
  401b74:	c3                   	retq   

0000000000401b75 <getval_345>:
  401b75:	b8 89 d1 28 db       	mov    $0xdb28d189,%eax
  401b7a:	c3                   	retq   

0000000000401b7b <setval_321>:
  401b7b:	c7 07 89 c2 94 d2    	movl   $0xd294c289,(%rdi)
  401b81:	c3                   	retq   

0000000000401b82 <setval_444>:
  401b82:	c7 07 6a 48 89 e0    	movl   $0xe089486a,(%rdi)
  401b88:	c3                   	retq   

0000000000401b89 <setval_107>:
  401b89:	c7 07 99 ce 38 db    	movl   $0xdb38ce99,(%rdi)
  401b8f:	c3                   	retq   

0000000000401b90 <getval_205>:
  401b90:	b8 58 89 e0 c3       	mov    $0xc3e08958,%eax
  401b95:	c3                   	retq   

0000000000401b96 <getval_154>:
  401b96:	b8 89 d1 28 c0       	mov    $0xc028d189,%eax
  401b9b:	c3                   	retq   

0000000000401b9c <addval_486>:
  401b9c:	8d 87 89 d1 38 db    	lea    -0x24c72e77(%rdi),%eax
  401ba2:	c3                   	retq   

0000000000401ba3 <end_farm>:
  401ba3:	b8 01 00 00 00       	mov    $0x1,%eax
  401ba8:	c3                   	retq   

0000000000401ba9 <save_char>:
  401ba9:	8b 05 75 45 20 00    	mov    0x204575(%rip),%eax        # 606124 <gets_cnt>
  401baf:	3d ff 03 00 00       	cmp    $0x3ff,%eax
  401bb4:	7f 4a                	jg     401c00 <save_char+0x57>
  401bb6:	89 f9                	mov    %edi,%ecx
  401bb8:	c0 e9 04             	shr    $0x4,%cl
  401bbb:	8d 14 40             	lea    (%rax,%rax,2),%edx
  401bbe:	4c 8d 05 8b 19 00 00 	lea    0x198b(%rip),%r8        # 403550 <trans_char>
  401bc5:	83 e1 0f             	and    $0xf,%ecx
  401bc8:	45 0f b6 0c 08       	movzbl (%r8,%rcx,1),%r9d
  401bcd:	48 8d 0d 4c 39 20 00 	lea    0x20394c(%rip),%rcx        # 605520 <gets_buf>
  401bd4:	48 63 f2             	movslq %edx,%rsi
  401bd7:	44 88 0c 31          	mov    %r9b,(%rcx,%rsi,1)
  401bdb:	8d 72 01             	lea    0x1(%rdx),%esi
  401bde:	83 e7 0f             	and    $0xf,%edi
  401be1:	41 0f b6 3c 38       	movzbl (%r8,%rdi,1),%edi
  401be6:	48 63 f6             	movslq %esi,%rsi
  401be9:	40 88 3c 31          	mov    %dil,(%rcx,%rsi,1)
  401bed:	83 c2 02             	add    $0x2,%edx
  401bf0:	48 63 d2             	movslq %edx,%rdx
  401bf3:	c6 04 11 20          	movb   $0x20,(%rcx,%rdx,1)
  401bf7:	83 c0 01             	add    $0x1,%eax
  401bfa:	89 05 24 45 20 00    	mov    %eax,0x204524(%rip)        # 606124 <gets_cnt>
  401c00:	f3 c3                	repz retq 

0000000000401c02 <save_term>:
  401c02:	8b 05 1c 45 20 00    	mov    0x20451c(%rip),%eax        # 606124 <gets_cnt>
  401c08:	8d 04 40             	lea    (%rax,%rax,2),%eax
  401c0b:	48 98                	cltq   
  401c0d:	48 8d 15 0c 39 20 00 	lea    0x20390c(%rip),%rdx        # 605520 <gets_buf>
  401c14:	c6 04 02 00          	movb   $0x0,(%rdx,%rax,1)
  401c18:	c3                   	retq   

0000000000401c19 <check_fail>:
  401c19:	48 83 ec 08          	sub    $0x8,%rsp
  401c1d:	0f be 15 04 45 20 00 	movsbl 0x204504(%rip),%edx        # 606128 <target_prefix>
  401c24:	4c 8d 05 f5 38 20 00 	lea    0x2038f5(%rip),%r8        # 605520 <gets_buf>
  401c2b:	8b 0d cb 38 20 00    	mov    0x2038cb(%rip),%ecx        # 6054fc <check_level>
  401c31:	48 8d 35 cb 16 00 00 	lea    0x16cb(%rip),%rsi        # 403303 <_IO_stdin_used+0x3b3>
  401c38:	bf 01 00 00 00       	mov    $0x1,%edi
  401c3d:	b8 00 00 00 00       	mov    $0x0,%eax
  401c42:	e8 99 f1 ff ff       	callq  400de0 <__printf_chk@plt>
  401c47:	bf 01 00 00 00       	mov    $0x1,%edi
  401c4c:	e8 df f1 ff ff       	callq  400e30 <exit@plt>

0000000000401c51 <Gets>:
  401c51:	41 54                	push   %r12
  401c53:	55                   	push   %rbp
  401c54:	53                   	push   %rbx
  401c55:	49 89 fc             	mov    %rdi,%r12
  401c58:	c7 05 c2 44 20 00 00 	movl   $0x0,0x2044c2(%rip)        # 606124 <gets_cnt>
  401c5f:	00 00 00 
  401c62:	48 89 fb             	mov    %rdi,%rbx
  401c65:	eb 11                	jmp    401c78 <Gets+0x27>
  401c67:	48 8d 6b 01          	lea    0x1(%rbx),%rbp
  401c6b:	88 03                	mov    %al,(%rbx)
  401c6d:	0f b6 f8             	movzbl %al,%edi
  401c70:	e8 34 ff ff ff       	callq  401ba9 <save_char>
  401c75:	48 89 eb             	mov    %rbp,%rbx
  401c78:	48 8b 3d 71 38 20 00 	mov    0x203871(%rip),%rdi        # 6054f0 <infile>
  401c7f:	e8 2c f1 ff ff       	callq  400db0 <_IO_getc@plt>
  401c84:	83 f8 ff             	cmp    $0xffffffff,%eax
  401c87:	74 05                	je     401c8e <Gets+0x3d>
  401c89:	83 f8 0a             	cmp    $0xa,%eax
  401c8c:	75 d9                	jne    401c67 <Gets+0x16>
  401c8e:	c6 03 00             	movb   $0x0,(%rbx)
  401c91:	b8 00 00 00 00       	mov    $0x0,%eax
  401c96:	e8 67 ff ff ff       	callq  401c02 <save_term>
  401c9b:	4c 89 e0             	mov    %r12,%rax
  401c9e:	5b                   	pop    %rbx
  401c9f:	5d                   	pop    %rbp
  401ca0:	41 5c                	pop    %r12
  401ca2:	c3                   	retq   

0000000000401ca3 <notify_server>:
  401ca3:	53                   	push   %rbx
  401ca4:	48 81 ec 10 20 00 00 	sub    $0x2010,%rsp
  401cab:	64 48 8b 04 25 28 00 	mov    %fs:0x28,%rax
  401cb2:	00 00 
  401cb4:	48 89 84 24 08 20 00 	mov    %rax,0x2008(%rsp)
  401cbb:	00 
  401cbc:	31 c0                	xor    %eax,%eax
  401cbe:	83 3d 47 38 20 00 00 	cmpl   $0x0,0x203847(%rip)        # 60550c <is_checker>
  401cc5:	75 7c                	jne    401d43 <notify_server+0xa0>
  401cc7:	8b 05 57 44 20 00    	mov    0x204457(%rip),%eax        # 606124 <gets_cnt>
  401ccd:	83 c0 64             	add    $0x64,%eax
  401cd0:	3d 00 20 00 00       	cmp    $0x2000,%eax
  401cd5:	0f 8f 84 00 00 00    	jg     401d5f <notify_server+0xbc>
  401cdb:	0f be 05 46 44 20 00 	movsbl 0x204446(%rip),%eax        # 606128 <target_prefix>
  401ce2:	83 3d 0f 38 20 00 00 	cmpl   $0x0,0x20380f(%rip)        # 6054f8 <notify>
  401ce9:	0f 84 90 00 00 00    	je     401d7f <notify_server+0xdc>
  401cef:	8b 15 0f 38 20 00    	mov    0x20380f(%rip),%edx        # 605504 <authkey>
  401cf5:	85 ff                	test   %edi,%edi
  401cf7:	0f 85 8c 00 00 00    	jne    401d89 <notify_server+0xe6>
  401cfd:	48 8d 1d 1a 16 00 00 	lea    0x161a(%rip),%rbx        # 40331e <_IO_stdin_used+0x3ce>
  401d04:	48 89 e7             	mov    %rsp,%rdi
  401d07:	48 8d 0d 12 38 20 00 	lea    0x203812(%rip),%rcx        # 605520 <gets_buf>
  401d0e:	51                   	push   %rcx
  401d0f:	56                   	push   %rsi
  401d10:	50                   	push   %rax
  401d11:	52                   	push   %rdx
  401d12:	49 89 d9             	mov    %rbx,%r9
  401d15:	44 8b 05 14 34 20 00 	mov    0x203414(%rip),%r8d        # 605130 <target_id>
  401d1c:	48 8d 0d 00 16 00 00 	lea    0x1600(%rip),%rcx        # 403323 <_IO_stdin_used+0x3d3>
  401d23:	ba 00 20 00 00       	mov    $0x2000,%edx
  401d28:	be 01 00 00 00       	mov    $0x1,%esi
  401d2d:	b8 00 00 00 00       	mov    $0x0,%eax
  401d32:	e8 29 f1 ff ff       	callq  400e60 <__sprintf_chk@plt>
  401d37:	48 83 c4 20          	add    $0x20,%rsp
  401d3b:	48 89 df             	mov    %rbx,%rdi
  401d3e:	e8 7d ef ff ff       	callq  400cc0 <puts@plt>
  401d43:	48 8b 84 24 08 20 00 	mov    0x2008(%rsp),%rax
  401d4a:	00 
  401d4b:	64 48 33 04 25 28 00 	xor    %fs:0x28,%rax
  401d52:	00 00 
  401d54:	75 3f                	jne    401d95 <notify_server+0xf2>
  401d56:	48 81 c4 10 20 00 00 	add    $0x2010,%rsp
  401d5d:	5b                   	pop    %rbx
  401d5e:	c3                   	retq   
  401d5f:	48 8d 35 82 16 00 00 	lea    0x1682(%rip),%rsi        # 4033e8 <_IO_stdin_used+0x498>
  401d66:	bf 01 00 00 00       	mov    $0x1,%edi
  401d6b:	b8 00 00 00 00       	mov    $0x0,%eax
  401d70:	e8 6b f0 ff ff       	callq  400de0 <__printf_chk@plt>
  401d75:	bf 01 00 00 00       	mov    $0x1,%edi
  401d7a:	e8 b1 f0 ff ff       	callq  400e30 <exit@plt>
  401d7f:	ba ff ff ff ff       	mov    $0xffffffff,%edx
  401d84:	e9 6c ff ff ff       	jmpq   401cf5 <notify_server+0x52>
  401d89:	48 8d 1d 89 15 00 00 	lea    0x1589(%rip),%rbx        # 403319 <_IO_stdin_used+0x3c9>
  401d90:	e9 6f ff ff ff       	jmpq   401d04 <notify_server+0x61>
  401d95:	e8 46 ef ff ff       	callq  400ce0 <__stack_chk_fail@plt>

0000000000401d9a <validate>:
  401d9a:	53                   	push   %rbx
  401d9b:	89 fb                	mov    %edi,%ebx
  401d9d:	83 3d 68 37 20 00 00 	cmpl   $0x0,0x203768(%rip)        # 60550c <is_checker>
  401da4:	74 72                	je     401e18 <validate+0x7e>
  401da6:	39 3d 54 37 20 00    	cmp    %edi,0x203754(%rip)        # 605500 <vlevel>
  401dac:	75 32                	jne    401de0 <validate+0x46>
  401dae:	8b 15 48 37 20 00    	mov    0x203748(%rip),%edx        # 6054fc <check_level>
  401db4:	39 fa                	cmp    %edi,%edx
  401db6:	75 3e                	jne    401df6 <validate+0x5c>
  401db8:	0f be 15 69 43 20 00 	movsbl 0x204369(%rip),%edx        # 606128 <target_prefix>
  401dbf:	4c 8d 05 5a 37 20 00 	lea    0x20375a(%rip),%r8        # 605520 <gets_buf>
  401dc6:	89 f9                	mov    %edi,%ecx
  401dc8:	48 8d 35 8e 15 00 00 	lea    0x158e(%rip),%rsi        # 40335d <_IO_stdin_used+0x40d>
  401dcf:	bf 01 00 00 00       	mov    $0x1,%edi
  401dd4:	b8 00 00 00 00       	mov    $0x0,%eax
  401dd9:	e8 02 f0 ff ff       	callq  400de0 <__printf_chk@plt>
  401dde:	5b                   	pop    %rbx
  401ddf:	c3                   	retq   
  401de0:	48 8d 3d 58 15 00 00 	lea    0x1558(%rip),%rdi        # 40333f <_IO_stdin_used+0x3ef>
  401de7:	e8 d4 ee ff ff       	callq  400cc0 <puts@plt>
  401dec:	b8 00 00 00 00       	mov    $0x0,%eax
  401df1:	e8 23 fe ff ff       	callq  401c19 <check_fail>
  401df6:	89 f9                	mov    %edi,%ecx
  401df8:	48 8d 35 19 16 00 00 	lea    0x1619(%rip),%rsi        # 403418 <_IO_stdin_used+0x4c8>
  401dff:	bf 01 00 00 00       	mov    $0x1,%edi
  401e04:	b8 00 00 00 00       	mov    $0x0,%eax
  401e09:	e8 d2 ef ff ff       	callq  400de0 <__printf_chk@plt>
  401e0e:	b8 00 00 00 00       	mov    $0x0,%eax
  401e13:	e8 01 fe ff ff       	callq  401c19 <check_fail>
  401e18:	39 3d e2 36 20 00    	cmp    %edi,0x2036e2(%rip)        # 605500 <vlevel>
  401e1e:	74 1a                	je     401e3a <validate+0xa0>
  401e20:	48 8d 3d 18 15 00 00 	lea    0x1518(%rip),%rdi        # 40333f <_IO_stdin_used+0x3ef>
  401e27:	e8 94 ee ff ff       	callq  400cc0 <puts@plt>
  401e2c:	89 de                	mov    %ebx,%esi
  401e2e:	bf 00 00 00 00       	mov    $0x0,%edi
  401e33:	e8 6b fe ff ff       	callq  401ca3 <notify_server>
  401e38:	eb a4                	jmp    401dde <validate+0x44>
  401e3a:	0f be 0d e7 42 20 00 	movsbl 0x2042e7(%rip),%ecx        # 606128 <target_prefix>
  401e41:	89 fa                	mov    %edi,%edx
  401e43:	48 8d 35 f6 15 00 00 	lea    0x15f6(%rip),%rsi        # 403440 <_IO_stdin_used+0x4f0>
  401e4a:	bf 01 00 00 00       	mov    $0x1,%edi
  401e4f:	b8 00 00 00 00       	mov    $0x0,%eax
  401e54:	e8 87 ef ff ff       	callq  400de0 <__printf_chk@plt>
  401e59:	89 de                	mov    %ebx,%esi
  401e5b:	bf 01 00 00 00       	mov    $0x1,%edi
  401e60:	e8 3e fe ff ff       	callq  401ca3 <notify_server>
  401e65:	e9 74 ff ff ff       	jmpq   401dde <validate+0x44>

0000000000401e6a <fail>:
  401e6a:	48 83 ec 08          	sub    $0x8,%rsp
  401e6e:	83 3d 97 36 20 00 00 	cmpl   $0x0,0x203697(%rip)        # 60550c <is_checker>
  401e75:	75 11                	jne    401e88 <fail+0x1e>
  401e77:	89 fe                	mov    %edi,%esi
  401e79:	bf 00 00 00 00       	mov    $0x0,%edi
  401e7e:	e8 20 fe ff ff       	callq  401ca3 <notify_server>
  401e83:	48 83 c4 08          	add    $0x8,%rsp
  401e87:	c3                   	retq   
  401e88:	b8 00 00 00 00       	mov    $0x0,%eax
  401e8d:	e8 87 fd ff ff       	callq  401c19 <check_fail>

0000000000401e92 <bushandler>:
  401e92:	48 83 ec 08          	sub    $0x8,%rsp
  401e96:	83 3d 6f 36 20 00 00 	cmpl   $0x0,0x20366f(%rip)        # 60550c <is_checker>
  401e9d:	74 16                	je     401eb5 <bushandler+0x23>
  401e9f:	48 8d 3d cc 14 00 00 	lea    0x14cc(%rip),%rdi        # 403372 <_IO_stdin_used+0x422>
  401ea6:	e8 15 ee ff ff       	callq  400cc0 <puts@plt>
  401eab:	b8 00 00 00 00       	mov    $0x0,%eax
  401eb0:	e8 64 fd ff ff       	callq  401c19 <check_fail>
  401eb5:	48 8d 3d bc 15 00 00 	lea    0x15bc(%rip),%rdi        # 403478 <_IO_stdin_used+0x528>
  401ebc:	e8 ff ed ff ff       	callq  400cc0 <puts@plt>
  401ec1:	48 8d 3d b4 14 00 00 	lea    0x14b4(%rip),%rdi        # 40337c <_IO_stdin_used+0x42c>
  401ec8:	e8 f3 ed ff ff       	callq  400cc0 <puts@plt>
  401ecd:	be 00 00 00 00       	mov    $0x0,%esi
  401ed2:	bf 00 00 00 00       	mov    $0x0,%edi
  401ed7:	e8 c7 fd ff ff       	callq  401ca3 <notify_server>
  401edc:	bf 01 00 00 00       	mov    $0x1,%edi
  401ee1:	e8 4a ef ff ff       	callq  400e30 <exit@plt>

0000000000401ee6 <seghandler>:
  401ee6:	48 83 ec 08          	sub    $0x8,%rsp
  401eea:	83 3d 1b 36 20 00 00 	cmpl   $0x0,0x20361b(%rip)        # 60550c <is_checker>
  401ef1:	74 16                	je     401f09 <seghandler+0x23>
  401ef3:	48 8d 3d 98 14 00 00 	lea    0x1498(%rip),%rdi        # 403392 <_IO_stdin_used+0x442>
  401efa:	e8 c1 ed ff ff       	callq  400cc0 <puts@plt>
  401eff:	b8 00 00 00 00       	mov    $0x0,%eax
  401f04:	e8 10 fd ff ff       	callq  401c19 <check_fail>
  401f09:	48 8d 3d 88 15 00 00 	lea    0x1588(%rip),%rdi        # 403498 <_IO_stdin_used+0x548>
  401f10:	e8 ab ed ff ff       	callq  400cc0 <puts@plt>
  401f15:	48 8d 3d 60 14 00 00 	lea    0x1460(%rip),%rdi        # 40337c <_IO_stdin_used+0x42c>
  401f1c:	e8 9f ed ff ff       	callq  400cc0 <puts@plt>
  401f21:	be 00 00 00 00       	mov    $0x0,%esi
  401f26:	bf 00 00 00 00       	mov    $0x0,%edi
  401f2b:	e8 73 fd ff ff       	callq  401ca3 <notify_server>
  401f30:	bf 01 00 00 00       	mov    $0x1,%edi
  401f35:	e8 f6 ee ff ff       	callq  400e30 <exit@plt>

0000000000401f3a <illegalhandler>:
  401f3a:	48 83 ec 08          	sub    $0x8,%rsp
  401f3e:	83 3d c7 35 20 00 00 	cmpl   $0x0,0x2035c7(%rip)        # 60550c <is_checker>
  401f45:	74 16                	je     401f5d <illegalhandler+0x23>
  401f47:	48 8d 3d 57 14 00 00 	lea    0x1457(%rip),%rdi        # 4033a5 <_IO_stdin_used+0x455>
  401f4e:	e8 6d ed ff ff       	callq  400cc0 <puts@plt>
  401f53:	b8 00 00 00 00       	mov    $0x0,%eax
  401f58:	e8 bc fc ff ff       	callq  401c19 <check_fail>
  401f5d:	48 8d 3d 5c 15 00 00 	lea    0x155c(%rip),%rdi        # 4034c0 <_IO_stdin_used+0x570>
  401f64:	e8 57 ed ff ff       	callq  400cc0 <puts@plt>
  401f69:	48 8d 3d 0c 14 00 00 	lea    0x140c(%rip),%rdi        # 40337c <_IO_stdin_used+0x42c>
  401f70:	e8 4b ed ff ff       	callq  400cc0 <puts@plt>
  401f75:	be 00 00 00 00       	mov    $0x0,%esi
  401f7a:	bf 00 00 00 00       	mov    $0x0,%edi
  401f7f:	e8 1f fd ff ff       	callq  401ca3 <notify_server>
  401f84:	bf 01 00 00 00       	mov    $0x1,%edi
  401f89:	e8 a2 ee ff ff       	callq  400e30 <exit@plt>

0000000000401f8e <sigalrmhandler>:
  401f8e:	48 83 ec 08          	sub    $0x8,%rsp
  401f92:	83 3d 73 35 20 00 00 	cmpl   $0x0,0x203573(%rip)        # 60550c <is_checker>
  401f99:	74 16                	je     401fb1 <sigalrmhandler+0x23>
  401f9b:	48 8d 3d 17 14 00 00 	lea    0x1417(%rip),%rdi        # 4033b9 <_IO_stdin_used+0x469>
  401fa2:	e8 19 ed ff ff       	callq  400cc0 <puts@plt>
  401fa7:	b8 00 00 00 00       	mov    $0x0,%eax
  401fac:	e8 68 fc ff ff       	callq  401c19 <check_fail>
  401fb1:	ba 05 00 00 00       	mov    $0x5,%edx
  401fb6:	48 8d 35 33 15 00 00 	lea    0x1533(%rip),%rsi        # 4034f0 <_IO_stdin_used+0x5a0>
  401fbd:	bf 01 00 00 00       	mov    $0x1,%edi
  401fc2:	b8 00 00 00 00       	mov    $0x0,%eax
  401fc7:	e8 14 ee ff ff       	callq  400de0 <__printf_chk@plt>
  401fcc:	be 00 00 00 00       	mov    $0x0,%esi
  401fd1:	bf 00 00 00 00       	mov    $0x0,%edi
  401fd6:	e8 c8 fc ff ff       	callq  401ca3 <notify_server>
  401fdb:	bf 01 00 00 00       	mov    $0x1,%edi
  401fe0:	e8 4b ee ff ff       	callq  400e30 <exit@plt>

0000000000401fe5 <launch>:
  401fe5:	55                   	push   %rbp
  401fe6:	48 89 e5             	mov    %rsp,%rbp
  401fe9:	48 83 ec 10          	sub    $0x10,%rsp
  401fed:	48 89 fa             	mov    %rdi,%rdx
  401ff0:	64 48 8b 04 25 28 00 	mov    %fs:0x28,%rax
  401ff7:	00 00 
  401ff9:	48 89 45 f8          	mov    %rax,-0x8(%rbp)
  401ffd:	31 c0                	xor    %eax,%eax
  401fff:	48 8d 47 1e          	lea    0x1e(%rdi),%rax
  402003:	48 83 e0 f0          	and    $0xfffffffffffffff0,%rax
  402007:	48 29 c4             	sub    %rax,%rsp
  40200a:	48 8d 7c 24 0f       	lea    0xf(%rsp),%rdi
  40200f:	48 83 e7 f0          	and    $0xfffffffffffffff0,%rdi
  402013:	be f4 00 00 00       	mov    $0xf4,%esi
  402018:	e8 e3 ec ff ff       	callq  400d00 <memset@plt>
  40201d:	48 8b 05 7c 34 20 00 	mov    0x20347c(%rip),%rax        # 6054a0 <stdin@@GLIBC_2.2.5>
  402024:	48 39 05 c5 34 20 00 	cmp    %rax,0x2034c5(%rip)        # 6054f0 <infile>
  40202b:	74 3a                	je     402067 <launch+0x82>
  40202d:	c7 05 c9 34 20 00 00 	movl   $0x0,0x2034c9(%rip)        # 605500 <vlevel>
  402034:	00 00 00 
  402037:	b8 00 00 00 00       	mov    $0x0,%eax
  40203c:	e8 21 fa ff ff       	callq  401a62 <test>
  402041:	83 3d c4 34 20 00 00 	cmpl   $0x0,0x2034c4(%rip)        # 60550c <is_checker>
  402048:	75 35                	jne    40207f <launch+0x9a>
  40204a:	48 8d 3d 88 13 00 00 	lea    0x1388(%rip),%rdi        # 4033d9 <_IO_stdin_used+0x489>
  402051:	e8 6a ec ff ff       	callq  400cc0 <puts@plt>
  402056:	48 8b 45 f8          	mov    -0x8(%rbp),%rax
  40205a:	64 48 33 04 25 28 00 	xor    %fs:0x28,%rax
  402061:	00 00 
  402063:	75 30                	jne    402095 <launch+0xb0>
  402065:	c9                   	leaveq 
  402066:	c3                   	retq   
  402067:	48 8d 35 53 13 00 00 	lea    0x1353(%rip),%rsi        # 4033c1 <_IO_stdin_used+0x471>
  40206e:	bf 01 00 00 00       	mov    $0x1,%edi
  402073:	b8 00 00 00 00       	mov    $0x0,%eax
  402078:	e8 63 ed ff ff       	callq  400de0 <__printf_chk@plt>
  40207d:	eb ae                	jmp    40202d <launch+0x48>
  40207f:	48 8d 3d 48 13 00 00 	lea    0x1348(%rip),%rdi        # 4033ce <_IO_stdin_used+0x47e>
  402086:	e8 35 ec ff ff       	callq  400cc0 <puts@plt>
  40208b:	b8 00 00 00 00       	mov    $0x0,%eax
  402090:	e8 84 fb ff ff       	callq  401c19 <check_fail>
  402095:	e8 46 ec ff ff       	callq  400ce0 <__stack_chk_fail@plt>

000000000040209a <stable_launch>:
  40209a:	53                   	push   %rbx
  40209b:	48 89 3d 46 34 20 00 	mov    %rdi,0x203446(%rip)        # 6054e8 <global_offset>
  4020a2:	41 b9 00 00 00 00    	mov    $0x0,%r9d
  4020a8:	41 b8 00 00 00 00    	mov    $0x0,%r8d
  4020ae:	b9 32 01 00 00       	mov    $0x132,%ecx
  4020b3:	ba 07 00 00 00       	mov    $0x7,%edx
  4020b8:	be 00 00 10 00       	mov    $0x100000,%esi
  4020bd:	bf 00 60 58 55       	mov    $0x55586000,%edi
  4020c2:	e8 29 ec ff ff       	callq  400cf0 <mmap@plt>
  4020c7:	48 89 c3             	mov    %rax,%rbx
  4020ca:	48 3d 00 60 58 55    	cmp    $0x55586000,%rax
  4020d0:	75 43                	jne    402115 <stable_launch+0x7b>
  4020d2:	48 8d 90 f8 ff 0f 00 	lea    0xffff8(%rax),%rdx
  4020d9:	48 89 15 50 40 20 00 	mov    %rdx,0x204050(%rip)        # 606130 <stack_top>
  4020e0:	48 89 e0             	mov    %rsp,%rax
  4020e3:	48 89 d4             	mov    %rdx,%rsp
  4020e6:	48 89 c2             	mov    %rax,%rdx
  4020e9:	48 89 15 f0 33 20 00 	mov    %rdx,0x2033f0(%rip)        # 6054e0 <global_save_stack>
  4020f0:	48 8b 3d f1 33 20 00 	mov    0x2033f1(%rip),%rdi        # 6054e8 <global_offset>
  4020f7:	e8 e9 fe ff ff       	callq  401fe5 <launch>
  4020fc:	48 8b 05 dd 33 20 00 	mov    0x2033dd(%rip),%rax        # 6054e0 <global_save_stack>
  402103:	48 89 c4             	mov    %rax,%rsp
  402106:	be 00 00 10 00       	mov    $0x100000,%esi
  40210b:	48 89 df             	mov    %rbx,%rdi
  40210e:	e8 bd ec ff ff       	callq  400dd0 <munmap@plt>
  402113:	5b                   	pop    %rbx
  402114:	c3                   	retq   
  402115:	be 00 00 10 00       	mov    $0x100000,%esi
  40211a:	48 89 c7             	mov    %rax,%rdi
  40211d:	e8 ae ec ff ff       	callq  400dd0 <munmap@plt>
  402122:	b9 00 60 58 55       	mov    $0x55586000,%ecx
  402127:	48 8d 15 fa 13 00 00 	lea    0x13fa(%rip),%rdx        # 403528 <_IO_stdin_used+0x5d8>
  40212e:	be 01 00 00 00       	mov    $0x1,%esi
  402133:	48 8b 3d 86 33 20 00 	mov    0x203386(%rip),%rdi        # 6054c0 <stderr@@GLIBC_2.2.5>
  40213a:	b8 00 00 00 00       	mov    $0x0,%eax
  40213f:	e8 0c ed ff ff       	callq  400e50 <__fprintf_chk@plt>
  402144:	bf 01 00 00 00       	mov    $0x1,%edi
  402149:	e8 e2 ec ff ff       	callq  400e30 <exit@plt>

000000000040214e <rio_readinitb>:
  40214e:	89 37                	mov    %esi,(%rdi)
  402150:	c7 47 04 00 00 00 00 	movl   $0x0,0x4(%rdi)
  402157:	48 8d 47 10          	lea    0x10(%rdi),%rax
  40215b:	48 89 47 08          	mov    %rax,0x8(%rdi)
  40215f:	c3                   	retq   

0000000000402160 <sigalrm_handler>:
  402160:	48 83 ec 08          	sub    $0x8,%rsp
  402164:	b9 00 00 00 00       	mov    $0x0,%ecx
  402169:	48 8d 15 f0 13 00 00 	lea    0x13f0(%rip),%rdx        # 403560 <trans_char+0x10>
  402170:	be 01 00 00 00       	mov    $0x1,%esi
  402175:	48 8b 3d 44 33 20 00 	mov    0x203344(%rip),%rdi        # 6054c0 <stderr@@GLIBC_2.2.5>
  40217c:	b8 00 00 00 00       	mov    $0x0,%eax
  402181:	e8 ca ec ff ff       	callq  400e50 <__fprintf_chk@plt>
  402186:	bf 01 00 00 00       	mov    $0x1,%edi
  40218b:	e8 a0 ec ff ff       	callq  400e30 <exit@plt>

0000000000402190 <rio_writen>:
  402190:	41 55                	push   %r13
  402192:	41 54                	push   %r12
  402194:	55                   	push   %rbp
  402195:	53                   	push   %rbx
  402196:	48 83 ec 08          	sub    $0x8,%rsp
  40219a:	41 89 fc             	mov    %edi,%r12d
  40219d:	48 89 f5             	mov    %rsi,%rbp
  4021a0:	49 89 d5             	mov    %rdx,%r13
  4021a3:	48 89 d3             	mov    %rdx,%rbx
  4021a6:	eb 06                	jmp    4021ae <rio_writen+0x1e>
  4021a8:	48 29 c3             	sub    %rax,%rbx
  4021ab:	48 01 c5             	add    %rax,%rbp
  4021ae:	48 85 db             	test   %rbx,%rbx
  4021b1:	74 24                	je     4021d7 <rio_writen+0x47>
  4021b3:	48 89 da             	mov    %rbx,%rdx
  4021b6:	48 89 ee             	mov    %rbp,%rsi
  4021b9:	44 89 e7             	mov    %r12d,%edi
  4021bc:	e8 0f eb ff ff       	callq  400cd0 <write@plt>
  4021c1:	48 85 c0             	test   %rax,%rax
  4021c4:	7f e2                	jg     4021a8 <rio_writen+0x18>
  4021c6:	e8 b5 ea ff ff       	callq  400c80 <__errno_location@plt>
  4021cb:	83 38 04             	cmpl   $0x4,(%rax)
  4021ce:	75 15                	jne    4021e5 <rio_writen+0x55>
  4021d0:	b8 00 00 00 00       	mov    $0x0,%eax
  4021d5:	eb d1                	jmp    4021a8 <rio_writen+0x18>
  4021d7:	4c 89 e8             	mov    %r13,%rax
  4021da:	48 83 c4 08          	add    $0x8,%rsp
  4021de:	5b                   	pop    %rbx
  4021df:	5d                   	pop    %rbp
  4021e0:	41 5c                	pop    %r12
  4021e2:	41 5d                	pop    %r13
  4021e4:	c3                   	retq   
  4021e5:	48 c7 c0 ff ff ff ff 	mov    $0xffffffffffffffff,%rax
  4021ec:	eb ec                	jmp    4021da <rio_writen+0x4a>

00000000004021ee <rio_read>:
  4021ee:	41 55                	push   %r13
  4021f0:	41 54                	push   %r12
  4021f2:	55                   	push   %rbp
  4021f3:	53                   	push   %rbx
  4021f4:	48 83 ec 08          	sub    $0x8,%rsp
  4021f8:	48 89 fb             	mov    %rdi,%rbx
  4021fb:	49 89 f5             	mov    %rsi,%r13
  4021fe:	49 89 d4             	mov    %rdx,%r12
  402201:	eb 0a                	jmp    40220d <rio_read+0x1f>
  402203:	e8 78 ea ff ff       	callq  400c80 <__errno_location@plt>
  402208:	83 38 04             	cmpl   $0x4,(%rax)
  40220b:	75 5c                	jne    402269 <rio_read+0x7b>
  40220d:	8b 6b 04             	mov    0x4(%rbx),%ebp
  402210:	85 ed                	test   %ebp,%ebp
  402212:	7f 24                	jg     402238 <rio_read+0x4a>
  402214:	48 8d 6b 10          	lea    0x10(%rbx),%rbp
  402218:	8b 3b                	mov    (%rbx),%edi
  40221a:	ba 00 20 00 00       	mov    $0x2000,%edx
  40221f:	48 89 ee             	mov    %rbp,%rsi
  402222:	e8 09 eb ff ff       	callq  400d30 <read@plt>
  402227:	89 43 04             	mov    %eax,0x4(%rbx)
  40222a:	85 c0                	test   %eax,%eax
  40222c:	78 d5                	js     402203 <rio_read+0x15>
  40222e:	85 c0                	test   %eax,%eax
  402230:	74 40                	je     402272 <rio_read+0x84>
  402232:	48 89 6b 08          	mov    %rbp,0x8(%rbx)
  402236:	eb d5                	jmp    40220d <rio_read+0x1f>
  402238:	89 e8                	mov    %ebp,%eax
  40223a:	4c 39 e0             	cmp    %r12,%rax
  40223d:	72 03                	jb     402242 <rio_read+0x54>
  40223f:	44 89 e5             	mov    %r12d,%ebp
  402242:	4c 63 e5             	movslq %ebp,%r12
  402245:	48 8b 73 08          	mov    0x8(%rbx),%rsi
  402249:	4c 89 e2             	mov    %r12,%rdx
  40224c:	4c 89 ef             	mov    %r13,%rdi
  40224f:	e8 2c eb ff ff       	callq  400d80 <memcpy@plt>
  402254:	4c 01 63 08          	add    %r12,0x8(%rbx)
  402258:	29 6b 04             	sub    %ebp,0x4(%rbx)
  40225b:	4c 89 e0             	mov    %r12,%rax
  40225e:	48 83 c4 08          	add    $0x8,%rsp
  402262:	5b                   	pop    %rbx
  402263:	5d                   	pop    %rbp
  402264:	41 5c                	pop    %r12
  402266:	41 5d                	pop    %r13
  402268:	c3                   	retq   
  402269:	48 c7 c0 ff ff ff ff 	mov    $0xffffffffffffffff,%rax
  402270:	eb ec                	jmp    40225e <rio_read+0x70>
  402272:	b8 00 00 00 00       	mov    $0x0,%eax
  402277:	eb e5                	jmp    40225e <rio_read+0x70>

0000000000402279 <rio_readlineb>:
  402279:	41 55                	push   %r13
  40227b:	41 54                	push   %r12
  40227d:	55                   	push   %rbp
  40227e:	53                   	push   %rbx
  40227f:	48 83 ec 18          	sub    $0x18,%rsp
  402283:	49 89 fd             	mov    %rdi,%r13
  402286:	48 89 f5             	mov    %rsi,%rbp
  402289:	49 89 d4             	mov    %rdx,%r12
  40228c:	64 48 8b 04 25 28 00 	mov    %fs:0x28,%rax
  402293:	00 00 
  402295:	48 89 44 24 08       	mov    %rax,0x8(%rsp)
  40229a:	31 c0                	xor    %eax,%eax
  40229c:	bb 01 00 00 00       	mov    $0x1,%ebx
  4022a1:	4c 39 e3             	cmp    %r12,%rbx
  4022a4:	73 47                	jae    4022ed <rio_readlineb+0x74>
  4022a6:	48 8d 74 24 07       	lea    0x7(%rsp),%rsi
  4022ab:	ba 01 00 00 00       	mov    $0x1,%edx
  4022b0:	4c 89 ef             	mov    %r13,%rdi
  4022b3:	e8 36 ff ff ff       	callq  4021ee <rio_read>
  4022b8:	83 f8 01             	cmp    $0x1,%eax
  4022bb:	75 1c                	jne    4022d9 <rio_readlineb+0x60>
  4022bd:	48 8d 45 01          	lea    0x1(%rbp),%rax
  4022c1:	0f b6 54 24 07       	movzbl 0x7(%rsp),%edx
  4022c6:	88 55 00             	mov    %dl,0x0(%rbp)
  4022c9:	80 7c 24 07 0a       	cmpb   $0xa,0x7(%rsp)
  4022ce:	74 1a                	je     4022ea <rio_readlineb+0x71>
  4022d0:	48 83 c3 01          	add    $0x1,%rbx
  4022d4:	48 89 c5             	mov    %rax,%rbp
  4022d7:	eb c8                	jmp    4022a1 <rio_readlineb+0x28>
  4022d9:	85 c0                	test   %eax,%eax
  4022db:	75 32                	jne    40230f <rio_readlineb+0x96>
  4022dd:	48 83 fb 01          	cmp    $0x1,%rbx
  4022e1:	75 0a                	jne    4022ed <rio_readlineb+0x74>
  4022e3:	b8 00 00 00 00       	mov    $0x0,%eax
  4022e8:	eb 0a                	jmp    4022f4 <rio_readlineb+0x7b>
  4022ea:	48 89 c5             	mov    %rax,%rbp
  4022ed:	c6 45 00 00          	movb   $0x0,0x0(%rbp)
  4022f1:	48 89 d8             	mov    %rbx,%rax
  4022f4:	48 8b 4c 24 08       	mov    0x8(%rsp),%rcx
  4022f9:	64 48 33 0c 25 28 00 	xor    %fs:0x28,%rcx
  402300:	00 00 
  402302:	75 14                	jne    402318 <rio_readlineb+0x9f>
  402304:	48 83 c4 18          	add    $0x18,%rsp
  402308:	5b                   	pop    %rbx
  402309:	5d                   	pop    %rbp
  40230a:	41 5c                	pop    %r12
  40230c:	41 5d                	pop    %r13
  40230e:	c3                   	retq   
  40230f:	48 c7 c0 ff ff ff ff 	mov    $0xffffffffffffffff,%rax
  402316:	eb dc                	jmp    4022f4 <rio_readlineb+0x7b>
  402318:	e8 c3 e9 ff ff       	callq  400ce0 <__stack_chk_fail@plt>

000000000040231d <urlencode>:
  40231d:	41 54                	push   %r12
  40231f:	55                   	push   %rbp
  402320:	53                   	push   %rbx
  402321:	48 83 ec 10          	sub    $0x10,%rsp
  402325:	48 89 fb             	mov    %rdi,%rbx
  402328:	48 89 f5             	mov    %rsi,%rbp
  40232b:	64 48 8b 04 25 28 00 	mov    %fs:0x28,%rax
  402332:	00 00 
  402334:	48 89 44 24 08       	mov    %rax,0x8(%rsp)
  402339:	31 c0                	xor    %eax,%eax
  40233b:	48 c7 c1 ff ff ff ff 	mov    $0xffffffffffffffff,%rcx
  402342:	f2 ae                	repnz scas %es:(%rdi),%al
  402344:	48 89 ce             	mov    %rcx,%rsi
  402347:	48 f7 d6             	not    %rsi
  40234a:	8d 46 ff             	lea    -0x1(%rsi),%eax
  40234d:	eb 0f                	jmp    40235e <urlencode+0x41>
  40234f:	44 88 45 00          	mov    %r8b,0x0(%rbp)
  402353:	48 8d 6d 01          	lea    0x1(%rbp),%rbp
  402357:	48 83 c3 01          	add    $0x1,%rbx
  40235b:	44 89 e0             	mov    %r12d,%eax
  40235e:	44 8d 60 ff          	lea    -0x1(%rax),%r12d
  402362:	85 c0                	test   %eax,%eax
  402364:	0f 84 a8 00 00 00    	je     402412 <urlencode+0xf5>
  40236a:	44 0f b6 03          	movzbl (%rbx),%r8d
  40236e:	41 80 f8 2a          	cmp    $0x2a,%r8b
  402372:	0f 94 c2             	sete   %dl
  402375:	41 80 f8 2d          	cmp    $0x2d,%r8b
  402379:	0f 94 c0             	sete   %al
  40237c:	08 c2                	or     %al,%dl
  40237e:	75 cf                	jne    40234f <urlencode+0x32>
  402380:	41 80 f8 2e          	cmp    $0x2e,%r8b
  402384:	74 c9                	je     40234f <urlencode+0x32>
  402386:	41 80 f8 5f          	cmp    $0x5f,%r8b
  40238a:	74 c3                	je     40234f <urlencode+0x32>
  40238c:	41 8d 40 d0          	lea    -0x30(%r8),%eax
  402390:	3c 09                	cmp    $0x9,%al
  402392:	76 bb                	jbe    40234f <urlencode+0x32>
  402394:	41 8d 40 bf          	lea    -0x41(%r8),%eax
  402398:	3c 19                	cmp    $0x19,%al
  40239a:	76 b3                	jbe    40234f <urlencode+0x32>
  40239c:	41 8d 40 9f          	lea    -0x61(%r8),%eax
  4023a0:	3c 19                	cmp    $0x19,%al
  4023a2:	76 ab                	jbe    40234f <urlencode+0x32>
  4023a4:	41 80 f8 20          	cmp    $0x20,%r8b
  4023a8:	74 56                	je     402400 <urlencode+0xe3>
  4023aa:	41 8d 40 e0          	lea    -0x20(%r8),%eax
  4023ae:	3c 5f                	cmp    $0x5f,%al
  4023b0:	0f 96 c2             	setbe  %dl
  4023b3:	41 80 f8 09          	cmp    $0x9,%r8b
  4023b7:	0f 94 c0             	sete   %al
  4023ba:	08 c2                	or     %al,%dl
  4023bc:	74 4f                	je     40240d <urlencode+0xf0>
  4023be:	48 89 e7             	mov    %rsp,%rdi
  4023c1:	45 0f b6 c0          	movzbl %r8b,%r8d
  4023c5:	48 8d 0d 2c 12 00 00 	lea    0x122c(%rip),%rcx        # 4035f8 <trans_char+0xa8>
  4023cc:	ba 08 00 00 00       	mov    $0x8,%edx
  4023d1:	be 01 00 00 00       	mov    $0x1,%esi
  4023d6:	b8 00 00 00 00       	mov    $0x0,%eax
  4023db:	e8 80 ea ff ff       	callq  400e60 <__sprintf_chk@plt>
  4023e0:	0f b6 04 24          	movzbl (%rsp),%eax
  4023e4:	88 45 00             	mov    %al,0x0(%rbp)
  4023e7:	0f b6 44 24 01       	movzbl 0x1(%rsp),%eax
  4023ec:	88 45 01             	mov    %al,0x1(%rbp)
  4023ef:	0f b6 44 24 02       	movzbl 0x2(%rsp),%eax
  4023f4:	88 45 02             	mov    %al,0x2(%rbp)
  4023f7:	48 8d 6d 03          	lea    0x3(%rbp),%rbp
  4023fb:	e9 57 ff ff ff       	jmpq   402357 <urlencode+0x3a>
  402400:	c6 45 00 2b          	movb   $0x2b,0x0(%rbp)
  402404:	48 8d 6d 01          	lea    0x1(%rbp),%rbp
  402408:	e9 4a ff ff ff       	jmpq   402357 <urlencode+0x3a>
  40240d:	b8 ff ff ff ff       	mov    $0xffffffff,%eax
  402412:	48 8b 74 24 08       	mov    0x8(%rsp),%rsi
  402417:	64 48 33 34 25 28 00 	xor    %fs:0x28,%rsi
  40241e:	00 00 
  402420:	75 09                	jne    40242b <urlencode+0x10e>
  402422:	48 83 c4 10          	add    $0x10,%rsp
  402426:	5b                   	pop    %rbx
  402427:	5d                   	pop    %rbp
  402428:	41 5c                	pop    %r12
  40242a:	c3                   	retq   
  40242b:	e8 b0 e8 ff ff       	callq  400ce0 <__stack_chk_fail@plt>

0000000000402430 <submitr>:
  402430:	41 57                	push   %r15
  402432:	41 56                	push   %r14
  402434:	41 55                	push   %r13
  402436:	41 54                	push   %r12
  402438:	55                   	push   %rbp
  402439:	53                   	push   %rbx
  40243a:	48 81 ec 68 a0 00 00 	sub    $0xa068,%rsp
  402441:	49 89 fd             	mov    %rdi,%r13
  402444:	89 74 24 14          	mov    %esi,0x14(%rsp)
  402448:	49 89 d7             	mov    %rdx,%r15
  40244b:	48 89 4c 24 08       	mov    %rcx,0x8(%rsp)
  402450:	4c 89 44 24 18       	mov    %r8,0x18(%rsp)
  402455:	4d 89 ce             	mov    %r9,%r14
  402458:	48 8b ac 24 a0 a0 00 	mov    0xa0a0(%rsp),%rbp
  40245f:	00 
  402460:	64 48 8b 04 25 28 00 	mov    %fs:0x28,%rax
  402467:	00 00 
  402469:	48 89 84 24 58 a0 00 	mov    %rax,0xa058(%rsp)
  402470:	00 
  402471:	31 c0                	xor    %eax,%eax
  402473:	c7 44 24 2c 00 00 00 	movl   $0x0,0x2c(%rsp)
  40247a:	00 
  40247b:	ba 00 00 00 00       	mov    $0x0,%edx
  402480:	be 01 00 00 00       	mov    $0x1,%esi
  402485:	bf 02 00 00 00       	mov    $0x2,%edi
  40248a:	e8 e1 e9 ff ff       	callq  400e70 <socket@plt>
  40248f:	85 c0                	test   %eax,%eax
  402491:	0f 88 a9 02 00 00    	js     402740 <submitr+0x310>
  402497:	89 c3                	mov    %eax,%ebx
  402499:	4c 89 ef             	mov    %r13,%rdi
  40249c:	e8 af e8 ff ff       	callq  400d50 <gethostbyname@plt>
  4024a1:	48 85 c0             	test   %rax,%rax
  4024a4:	0f 84 e2 02 00 00    	je     40278c <submitr+0x35c>
  4024aa:	4c 8d 64 24 30       	lea    0x30(%rsp),%r12
  4024af:	48 c7 44 24 32 00 00 	movq   $0x0,0x32(%rsp)
  4024b6:	00 00 
  4024b8:	c7 44 24 3a 00 00 00 	movl   $0x0,0x3a(%rsp)
  4024bf:	00 
  4024c0:	66 c7 44 24 3e 00 00 	movw   $0x0,0x3e(%rsp)
  4024c7:	66 c7 44 24 30 02 00 	movw   $0x2,0x30(%rsp)
  4024ce:	48 63 50 14          	movslq 0x14(%rax),%rdx
  4024d2:	48 8b 40 18          	mov    0x18(%rax),%rax
  4024d6:	48 8b 30             	mov    (%rax),%rsi
  4024d9:	48 8d 7c 24 34       	lea    0x34(%rsp),%rdi
  4024de:	b9 0c 00 00 00       	mov    $0xc,%ecx
  4024e3:	e8 78 e8 ff ff       	callq  400d60 <__memmove_chk@plt>
  4024e8:	0f b7 44 24 14       	movzwl 0x14(%rsp),%eax
  4024ed:	66 c1 c8 08          	ror    $0x8,%ax
  4024f1:	66 89 44 24 32       	mov    %ax,0x32(%rsp)
  4024f6:	ba 10 00 00 00       	mov    $0x10,%edx
  4024fb:	4c 89 e6             	mov    %r12,%rsi
  4024fe:	89 df                	mov    %ebx,%edi
  402500:	e8 3b e9 ff ff       	callq  400e40 <connect@plt>
  402505:	85 c0                	test   %eax,%eax
  402507:	0f 88 e7 02 00 00    	js     4027f4 <submitr+0x3c4>
  40250d:	48 c7 c6 ff ff ff ff 	mov    $0xffffffffffffffff,%rsi
  402514:	b8 00 00 00 00       	mov    $0x0,%eax
  402519:	48 89 f1             	mov    %rsi,%rcx
  40251c:	4c 89 f7             	mov    %r14,%rdi
  40251f:	f2 ae                	repnz scas %es:(%rdi),%al
  402521:	48 89 ca             	mov    %rcx,%rdx
  402524:	48 f7 d2             	not    %rdx
  402527:	48 89 f1             	mov    %rsi,%rcx
  40252a:	4c 89 ff             	mov    %r15,%rdi
  40252d:	f2 ae                	repnz scas %es:(%rdi),%al
  40252f:	48 f7 d1             	not    %rcx
  402532:	49 89 c8             	mov    %rcx,%r8
  402535:	48 89 f1             	mov    %rsi,%rcx
  402538:	48 8b 7c 24 08       	mov    0x8(%rsp),%rdi
  40253d:	f2 ae                	repnz scas %es:(%rdi),%al
  40253f:	48 f7 d1             	not    %rcx
  402542:	4d 8d 44 08 fe       	lea    -0x2(%r8,%rcx,1),%r8
  402547:	48 89 f1             	mov    %rsi,%rcx
  40254a:	48 8b 7c 24 18       	mov    0x18(%rsp),%rdi
  40254f:	f2 ae                	repnz scas %es:(%rdi),%al
  402551:	48 89 c8             	mov    %rcx,%rax
  402554:	48 f7 d0             	not    %rax
  402557:	49 8d 4c 00 ff       	lea    -0x1(%r8,%rax,1),%rcx
  40255c:	48 8d 44 52 fd       	lea    -0x3(%rdx,%rdx,2),%rax
  402561:	48 8d 84 01 80 00 00 	lea    0x80(%rcx,%rax,1),%rax
  402568:	00 
  402569:	48 3d 00 20 00 00    	cmp    $0x2000,%rax
  40256f:	0f 87 d9 02 00 00    	ja     40284e <submitr+0x41e>
  402575:	48 8d b4 24 50 40 00 	lea    0x4050(%rsp),%rsi
  40257c:	00 
  40257d:	b9 00 04 00 00       	mov    $0x400,%ecx
  402582:	b8 00 00 00 00       	mov    $0x0,%eax
  402587:	48 89 f7             	mov    %rsi,%rdi
  40258a:	f3 48 ab             	rep stos %rax,%es:(%rdi)
  40258d:	4c 89 f7             	mov    %r14,%rdi
  402590:	e8 88 fd ff ff       	callq  40231d <urlencode>
  402595:	85 c0                	test   %eax,%eax
  402597:	0f 88 24 03 00 00    	js     4028c1 <submitr+0x491>
  40259d:	4c 8d a4 24 50 20 00 	lea    0x2050(%rsp),%r12
  4025a4:	00 
  4025a5:	41 55                	push   %r13
  4025a7:	48 8d 84 24 58 40 00 	lea    0x4058(%rsp),%rax
  4025ae:	00 
  4025af:	50                   	push   %rax
  4025b0:	4d 89 f9             	mov    %r15,%r9
  4025b3:	4c 8b 44 24 18       	mov    0x18(%rsp),%r8
  4025b8:	48 8d 0d c9 0f 00 00 	lea    0xfc9(%rip),%rcx        # 403588 <trans_char+0x38>
  4025bf:	ba 00 20 00 00       	mov    $0x2000,%edx
  4025c4:	be 01 00 00 00       	mov    $0x1,%esi
  4025c9:	4c 89 e7             	mov    %r12,%rdi
  4025cc:	b8 00 00 00 00       	mov    $0x0,%eax
  4025d1:	e8 8a e8 ff ff       	callq  400e60 <__sprintf_chk@plt>
  4025d6:	48 c7 c1 ff ff ff ff 	mov    $0xffffffffffffffff,%rcx
  4025dd:	b8 00 00 00 00       	mov    $0x0,%eax
  4025e2:	4c 89 e7             	mov    %r12,%rdi
  4025e5:	f2 ae                	repnz scas %es:(%rdi),%al
  4025e7:	48 89 ca             	mov    %rcx,%rdx
  4025ea:	48 f7 d2             	not    %rdx
  4025ed:	48 8d 52 ff          	lea    -0x1(%rdx),%rdx
  4025f1:	4c 89 e6             	mov    %r12,%rsi
  4025f4:	89 df                	mov    %ebx,%edi
  4025f6:	e8 95 fb ff ff       	callq  402190 <rio_writen>
  4025fb:	48 83 c4 10          	add    $0x10,%rsp
  4025ff:	48 85 c0             	test   %rax,%rax
  402602:	0f 88 44 03 00 00    	js     40294c <submitr+0x51c>
  402608:	4c 8d 64 24 40       	lea    0x40(%rsp),%r12
  40260d:	89 de                	mov    %ebx,%esi
  40260f:	4c 89 e7             	mov    %r12,%rdi
  402612:	e8 37 fb ff ff       	callq  40214e <rio_readinitb>
  402617:	48 8d b4 24 50 20 00 	lea    0x2050(%rsp),%rsi
  40261e:	00 
  40261f:	ba 00 20 00 00       	mov    $0x2000,%edx
  402624:	4c 89 e7             	mov    %r12,%rdi
  402627:	e8 4d fc ff ff       	callq  402279 <rio_readlineb>
  40262c:	48 85 c0             	test   %rax,%rax
  40262f:	0f 8e 86 03 00 00    	jle    4029bb <submitr+0x58b>
  402635:	48 8d 4c 24 2c       	lea    0x2c(%rsp),%rcx
  40263a:	48 8d 94 24 50 60 00 	lea    0x6050(%rsp),%rdx
  402641:	00 
  402642:	48 8d bc 24 50 20 00 	lea    0x2050(%rsp),%rdi
  402649:	00 
  40264a:	4c 8d 84 24 50 80 00 	lea    0x8050(%rsp),%r8
  402651:	00 
  402652:	48 8d 35 a6 0f 00 00 	lea    0xfa6(%rip),%rsi        # 4035ff <trans_char+0xaf>
  402659:	b8 00 00 00 00       	mov    $0x0,%eax
  40265e:	e8 5d e7 ff ff       	callq  400dc0 <__isoc99_sscanf@plt>
  402663:	48 8d b4 24 50 20 00 	lea    0x2050(%rsp),%rsi
  40266a:	00 
  40266b:	b9 03 00 00 00       	mov    $0x3,%ecx
  402670:	48 8d 3d 9f 0f 00 00 	lea    0xf9f(%rip),%rdi        # 403616 <trans_char+0xc6>
  402677:	f3 a6                	repz cmpsb %es:(%rdi),%ds:(%rsi)
  402679:	0f 97 c0             	seta   %al
  40267c:	1c 00                	sbb    $0x0,%al
  40267e:	84 c0                	test   %al,%al
  402680:	0f 84 b3 03 00 00    	je     402a39 <submitr+0x609>
  402686:	48 8d b4 24 50 20 00 	lea    0x2050(%rsp),%rsi
  40268d:	00 
  40268e:	48 8d 7c 24 40       	lea    0x40(%rsp),%rdi
  402693:	ba 00 20 00 00       	mov    $0x2000,%edx
  402698:	e8 dc fb ff ff       	callq  402279 <rio_readlineb>
  40269d:	48 85 c0             	test   %rax,%rax
  4026a0:	7f c1                	jg     402663 <submitr+0x233>
  4026a2:	48 b8 45 72 72 6f 72 	movabs $0x43203a726f727245,%rax
  4026a9:	3a 20 43 
  4026ac:	48 ba 6c 69 65 6e 74 	movabs $0x6e7520746e65696c,%rdx
  4026b3:	20 75 6e 
  4026b6:	48 89 45 00          	mov    %rax,0x0(%rbp)
  4026ba:	48 89 55 08          	mov    %rdx,0x8(%rbp)
  4026be:	48 b8 61 62 6c 65 20 	movabs $0x206f7420656c6261,%rax
  4026c5:	74 6f 20 
  4026c8:	48 ba 72 65 61 64 20 	movabs $0x6165682064616572,%rdx
  4026cf:	68 65 61 
  4026d2:	48 89 45 10          	mov    %rax,0x10(%rbp)
  4026d6:	48 89 55 18          	mov    %rdx,0x18(%rbp)
  4026da:	48 b8 64 65 72 73 20 	movabs $0x6f72662073726564,%rax
  4026e1:	66 72 6f 
  4026e4:	48 ba 6d 20 74 68 65 	movabs $0x657220656874206d,%rdx
  4026eb:	20 72 65 
  4026ee:	48 89 45 20          	mov    %rax,0x20(%rbp)
  4026f2:	48 89 55 28          	mov    %rdx,0x28(%rbp)
  4026f6:	48 b8 73 75 6c 74 20 	movabs $0x72657320746c7573,%rax
  4026fd:	73 65 72 
  402700:	48 89 45 30          	mov    %rax,0x30(%rbp)
  402704:	c7 45 38 76 65 72 00 	movl   $0x726576,0x38(%rbp)
  40270b:	89 df                	mov    %ebx,%edi
  40270d:	e8 0e e6 ff ff       	callq  400d20 <close@plt>
  402712:	b8 ff ff ff ff       	mov    $0xffffffff,%eax
  402717:	48 8b 9c 24 58 a0 00 	mov    0xa058(%rsp),%rbx
  40271e:	00 
  40271f:	64 48 33 1c 25 28 00 	xor    %fs:0x28,%rbx
  402726:	00 00 
  402728:	0f 85 7e 04 00 00    	jne    402bac <submitr+0x77c>
  40272e:	48 81 c4 68 a0 00 00 	add    $0xa068,%rsp
  402735:	5b                   	pop    %rbx
  402736:	5d                   	pop    %rbp
  402737:	41 5c                	pop    %r12
  402739:	41 5d                	pop    %r13
  40273b:	41 5e                	pop    %r14
  40273d:	41 5f                	pop    %r15
  40273f:	c3                   	retq   
  402740:	48 b8 45 72 72 6f 72 	movabs $0x43203a726f727245,%rax
  402747:	3a 20 43 
  40274a:	48 ba 6c 69 65 6e 74 	movabs $0x6e7520746e65696c,%rdx
  402751:	20 75 6e 
  402754:	48 89 45 00          	mov    %rax,0x0(%rbp)
  402758:	48 89 55 08          	mov    %rdx,0x8(%rbp)
  40275c:	48 b8 61 62 6c 65 20 	movabs $0x206f7420656c6261,%rax
  402763:	74 6f 20 
  402766:	48 ba 63 72 65 61 74 	movabs $0x7320657461657263,%rdx
  40276d:	65 20 73 
  402770:	48 89 45 10          	mov    %rax,0x10(%rbp)
  402774:	48 89 55 18          	mov    %rdx,0x18(%rbp)
  402778:	c7 45 20 6f 63 6b 65 	movl   $0x656b636f,0x20(%rbp)
  40277f:	66 c7 45 24 74 00    	movw   $0x74,0x24(%rbp)
  402785:	b8 ff ff ff ff       	mov    $0xffffffff,%eax
  40278a:	eb 8b                	jmp    402717 <submitr+0x2e7>
  40278c:	48 b8 45 72 72 6f 72 	movabs $0x44203a726f727245,%rax
  402793:	3a 20 44 
  402796:	48 ba 4e 53 20 69 73 	movabs $0x6e7520736920534e,%rdx
  40279d:	20 75 6e 
  4027a0:	48 89 45 00          	mov    %rax,0x0(%rbp)
  4027a4:	48 89 55 08          	mov    %rdx,0x8(%rbp)
  4027a8:	48 b8 61 62 6c 65 20 	movabs $0x206f7420656c6261,%rax
  4027af:	74 6f 20 
  4027b2:	48 ba 72 65 73 6f 6c 	movabs $0x2065766c6f736572,%rdx
  4027b9:	76 65 20 
  4027bc:	48 89 45 10          	mov    %rax,0x10(%rbp)
  4027c0:	48 89 55 18          	mov    %rdx,0x18(%rbp)
  4027c4:	48 b8 73 65 72 76 65 	movabs $0x6120726576726573,%rax
  4027cb:	72 20 61 
  4027ce:	48 89 45 20          	mov    %rax,0x20(%rbp)
  4027d2:	c7 45 28 64 64 72 65 	movl   $0x65726464,0x28(%rbp)
  4027d9:	66 c7 45 2c 73 73    	movw   $0x7373,0x2c(%rbp)
  4027df:	c6 45 2e 00          	movb   $0x0,0x2e(%rbp)
  4027e3:	89 df                	mov    %ebx,%edi
  4027e5:	e8 36 e5 ff ff       	callq  400d20 <close@plt>
  4027ea:	b8 ff ff ff ff       	mov    $0xffffffff,%eax
  4027ef:	e9 23 ff ff ff       	jmpq   402717 <submitr+0x2e7>
  4027f4:	48 b8 45 72 72 6f 72 	movabs $0x55203a726f727245,%rax
  4027fb:	3a 20 55 
  4027fe:	48 ba 6e 61 62 6c 65 	movabs $0x6f7420656c62616e,%rdx
  402805:	20 74 6f 
  402808:	48 89 45 00          	mov    %rax,0x0(%rbp)
  40280c:	48 89 55 08          	mov    %rdx,0x8(%rbp)
  402810:	48 b8 20 63 6f 6e 6e 	movabs $0x7463656e6e6f6320,%rax
  402817:	65 63 74 
  40281a:	48 ba 20 74 6f 20 74 	movabs $0x20656874206f7420,%rdx
  402821:	68 65 20 
  402824:	48 89 45 10          	mov    %rax,0x10(%rbp)
  402828:	48 89 55 18          	mov    %rdx,0x18(%rbp)
  40282c:	c7 45 20 73 65 72 76 	movl   $0x76726573,0x20(%rbp)
  402833:	66 c7 45 24 65 72    	movw   $0x7265,0x24(%rbp)
  402839:	c6 45 26 00          	movb   $0x0,0x26(%rbp)
  40283d:	89 df                	mov    %ebx,%edi
  40283f:	e8 dc e4 ff ff       	callq  400d20 <close@plt>
  402844:	b8 ff ff ff ff       	mov    $0xffffffff,%eax
  402849:	e9 c9 fe ff ff       	jmpq   402717 <submitr+0x2e7>
  40284e:	48 b8 45 72 72 6f 72 	movabs $0x52203a726f727245,%rax
  402855:	3a 20 52 
  402858:	48 ba 65 73 75 6c 74 	movabs $0x747320746c757365,%rdx
  40285f:	20 73 74 
  402862:	48 89 45 00          	mov    %rax,0x0(%rbp)
  402866:	48 89 55 08          	mov    %rdx,0x8(%rbp)
  40286a:	48 b8 72 69 6e 67 20 	movabs $0x6f6f7420676e6972,%rax
  402871:	74 6f 6f 
  402874:	48 ba 20 6c 61 72 67 	movabs $0x202e656772616c20,%rdx
  40287b:	65 2e 20 
  40287e:	48 89 45 10          	mov    %rax,0x10(%rbp)
  402882:	48 89 55 18          	mov    %rdx,0x18(%rbp)
  402886:	48 b8 49 6e 63 72 65 	movabs $0x6573616572636e49,%rax
  40288d:	61 73 65 
  402890:	48 ba 20 53 55 42 4d 	movabs $0x5254494d42555320,%rdx
  402897:	49 54 52 
  40289a:	48 89 45 20          	mov    %rax,0x20(%rbp)
  40289e:	48 89 55 28          	mov    %rdx,0x28(%rbp)
  4028a2:	48 b8 5f 4d 41 58 42 	movabs $0x46554258414d5f,%rax
  4028a9:	55 46 00 
  4028ac:	48 89 45 30          	mov    %rax,0x30(%rbp)
  4028b0:	89 df                	mov    %ebx,%edi
  4028b2:	e8 69 e4 ff ff       	callq  400d20 <close@plt>
  4028b7:	b8 ff ff ff ff       	mov    $0xffffffff,%eax
  4028bc:	e9 56 fe ff ff       	jmpq   402717 <submitr+0x2e7>
  4028c1:	48 b8 45 72 72 6f 72 	movabs $0x52203a726f727245,%rax
  4028c8:	3a 20 52 
  4028cb:	48 ba 65 73 75 6c 74 	movabs $0x747320746c757365,%rdx
  4028d2:	20 73 74 
  4028d5:	48 89 45 00          	mov    %rax,0x0(%rbp)
  4028d9:	48 89 55 08          	mov    %rdx,0x8(%rbp)
  4028dd:	48 b8 72 69 6e 67 20 	movabs $0x6e6f6320676e6972,%rax
  4028e4:	63 6f 6e 
  4028e7:	48 ba 74 61 69 6e 73 	movabs $0x6e6120736e696174,%rdx
  4028ee:	20 61 6e 
  4028f1:	48 89 45 10          	mov    %rax,0x10(%rbp)
  4028f5:	48 89 55 18          	mov    %rdx,0x18(%rbp)
  4028f9:	48 b8 20 69 6c 6c 65 	movabs $0x6c6167656c6c6920,%rax
  402900:	67 61 6c 
  402903:	48 ba 20 6f 72 20 75 	movabs $0x72706e7520726f20,%rdx
  40290a:	6e 70 72 
  40290d:	48 89 45 20          	mov    %rax,0x20(%rbp)
  402911:	48 89 55 28          	mov    %rdx,0x28(%rbp)
  402915:	48 b8 69 6e 74 61 62 	movabs $0x20656c6261746e69,%rax
  40291c:	6c 65 20 
  40291f:	48 ba 63 68 61 72 61 	movabs $0x6574636172616863,%rdx
  402926:	63 74 65 
  402929:	48 89 45 30          	mov    %rax,0x30(%rbp)
  40292d:	48 89 55 38          	mov    %rdx,0x38(%rbp)
  402931:	66 c7 45 40 72 2e    	movw   $0x2e72,0x40(%rbp)
  402937:	c6 45 42 00          	movb   $0x0,0x42(%rbp)
  40293b:	89 df                	mov    %ebx,%edi
  40293d:	e8 de e3 ff ff       	callq  400d20 <close@plt>
  402942:	b8 ff ff ff ff       	mov    $0xffffffff,%eax
  402947:	e9 cb fd ff ff       	jmpq   402717 <submitr+0x2e7>
  40294c:	48 b8 45 72 72 6f 72 	movabs $0x43203a726f727245,%rax
  402953:	3a 20 43 
  402956:	48 ba 6c 69 65 6e 74 	movabs $0x6e7520746e65696c,%rdx
  40295d:	20 75 6e 
  402960:	48 89 45 00          	mov    %rax,0x0(%rbp)
  402964:	48 89 55 08          	mov    %rdx,0x8(%rbp)
  402968:	48 b8 61 62 6c 65 20 	movabs $0x206f7420656c6261,%rax
  40296f:	74 6f 20 
  402972:	48 ba 77 72 69 74 65 	movabs $0x6f74206574697277,%rdx
  402979:	20 74 6f 
  40297c:	48 89 45 10          	mov    %rax,0x10(%rbp)
  402980:	48 89 55 18          	mov    %rdx,0x18(%rbp)
  402984:	48 b8 20 74 68 65 20 	movabs $0x7365722065687420,%rax
  40298b:	72 65 73 
  40298e:	48 ba 75 6c 74 20 73 	movabs $0x7672657320746c75,%rdx
  402995:	65 72 76 
  402998:	48 89 45 20          	mov    %rax,0x20(%rbp)
  40299c:	48 89 55 28          	mov    %rdx,0x28(%rbp)
  4029a0:	66 c7 45 30 65 72    	movw   $0x7265,0x30(%rbp)
  4029a6:	c6 45 32 00          	movb   $0x0,0x32(%rbp)
  4029aa:	89 df                	mov    %ebx,%edi
  4029ac:	e8 6f e3 ff ff       	callq  400d20 <close@plt>
  4029b1:	b8 ff ff ff ff       	mov    $0xffffffff,%eax
  4029b6:	e9 5c fd ff ff       	jmpq   402717 <submitr+0x2e7>
  4029bb:	48 b8 45 72 72 6f 72 	movabs $0x43203a726f727245,%rax
  4029c2:	3a 20 43 
  4029c5:	48 ba 6c 69 65 6e 74 	movabs $0x6e7520746e65696c,%rdx
  4029cc:	20 75 6e 
  4029cf:	48 89 45 00          	mov    %rax,0x0(%rbp)
  4029d3:	48 89 55 08          	mov    %rdx,0x8(%rbp)
  4029d7:	48 b8 61 62 6c 65 20 	movabs $0x206f7420656c6261,%rax
  4029de:	74 6f 20 
  4029e1:	48 ba 72 65 61 64 20 	movabs $0x7269662064616572,%rdx
  4029e8:	66 69 72 
  4029eb:	48 89 45 10          	mov    %rax,0x10(%rbp)
  4029ef:	48 89 55 18          	mov    %rdx,0x18(%rbp)
  4029f3:	48 b8 73 74 20 68 65 	movabs $0x6564616568207473,%rax
  4029fa:	61 64 65 
  4029fd:	48 ba 72 20 66 72 6f 	movabs $0x72206d6f72662072,%rdx
  402a04:	6d 20 72 
  402a07:	48 89 45 20          	mov    %rax,0x20(%rbp)
  402a0b:	48 89 55 28          	mov    %rdx,0x28(%rbp)
  402a0f:	48 b8 65 73 75 6c 74 	movabs $0x657320746c757365,%rax
  402a16:	20 73 65 
  402a19:	48 89 45 30          	mov    %rax,0x30(%rbp)
  402a1d:	c7 45 38 72 76 65 72 	movl   $0x72657672,0x38(%rbp)
  402a24:	c6 45 3c 00          	movb   $0x0,0x3c(%rbp)
  402a28:	89 df                	mov    %ebx,%edi
  402a2a:	e8 f1 e2 ff ff       	callq  400d20 <close@plt>
  402a2f:	b8 ff ff ff ff       	mov    $0xffffffff,%eax
  402a34:	e9 de fc ff ff       	jmpq   402717 <submitr+0x2e7>
  402a39:	48 8d b4 24 50 20 00 	lea    0x2050(%rsp),%rsi
  402a40:	00 
  402a41:	48 8d 7c 24 40       	lea    0x40(%rsp),%rdi
  402a46:	ba 00 20 00 00       	mov    $0x2000,%edx
  402a4b:	e8 29 f8 ff ff       	callq  402279 <rio_readlineb>
  402a50:	48 85 c0             	test   %rax,%rax
  402a53:	0f 8e 96 00 00 00    	jle    402aef <submitr+0x6bf>
  402a59:	44 8b 44 24 2c       	mov    0x2c(%rsp),%r8d
  402a5e:	41 81 f8 c8 00 00 00 	cmp    $0xc8,%r8d
  402a65:	0f 85 08 01 00 00    	jne    402b73 <submitr+0x743>
  402a6b:	48 8d b4 24 50 20 00 	lea    0x2050(%rsp),%rsi
  402a72:	00 
  402a73:	48 89 ef             	mov    %rbp,%rdi
  402a76:	e8 35 e2 ff ff       	callq  400cb0 <strcpy@plt>
  402a7b:	89 df                	mov    %ebx,%edi
  402a7d:	e8 9e e2 ff ff       	callq  400d20 <close@plt>
  402a82:	b9 04 00 00 00       	mov    $0x4,%ecx
  402a87:	48 8d 3d 82 0b 00 00 	lea    0xb82(%rip),%rdi        # 403610 <trans_char+0xc0>
  402a8e:	48 89 ee             	mov    %rbp,%rsi
  402a91:	f3 a6                	repz cmpsb %es:(%rdi),%ds:(%rsi)
  402a93:	0f 97 c0             	seta   %al
  402a96:	1c 00                	sbb    $0x0,%al
  402a98:	0f be c0             	movsbl %al,%eax
  402a9b:	85 c0                	test   %eax,%eax
  402a9d:	0f 84 74 fc ff ff    	je     402717 <submitr+0x2e7>
  402aa3:	b9 05 00 00 00       	mov    $0x5,%ecx
  402aa8:	48 8d 3d 65 0b 00 00 	lea    0xb65(%rip),%rdi        # 403614 <trans_char+0xc4>
  402aaf:	48 89 ee             	mov    %rbp,%rsi
  402ab2:	f3 a6                	repz cmpsb %es:(%rdi),%ds:(%rsi)
  402ab4:	0f 97 c0             	seta   %al
  402ab7:	1c 00                	sbb    $0x0,%al
  402ab9:	0f be c0             	movsbl %al,%eax
  402abc:	85 c0                	test   %eax,%eax
  402abe:	0f 84 53 fc ff ff    	je     402717 <submitr+0x2e7>
  402ac4:	b9 03 00 00 00       	mov    $0x3,%ecx
  402ac9:	48 8d 3d 49 0b 00 00 	lea    0xb49(%rip),%rdi        # 403619 <trans_char+0xc9>
  402ad0:	48 89 ee             	mov    %rbp,%rsi
  402ad3:	f3 a6                	repz cmpsb %es:(%rdi),%ds:(%rsi)
  402ad5:	0f 97 c0             	seta   %al
  402ad8:	1c 00                	sbb    $0x0,%al
  402ada:	0f be c0             	movsbl %al,%eax
  402add:	85 c0                	test   %eax,%eax
  402adf:	0f 84 32 fc ff ff    	je     402717 <submitr+0x2e7>
  402ae5:	b8 ff ff ff ff       	mov    $0xffffffff,%eax
  402aea:	e9 28 fc ff ff       	jmpq   402717 <submitr+0x2e7>
  402aef:	48 b8 45 72 72 6f 72 	movabs $0x43203a726f727245,%rax
  402af6:	3a 20 43 
  402af9:	48 ba 6c 69 65 6e 74 	movabs $0x6e7520746e65696c,%rdx
  402b00:	20 75 6e 
  402b03:	48 89 45 00          	mov    %rax,0x0(%rbp)
  402b07:	48 89 55 08          	mov    %rdx,0x8(%rbp)
  402b0b:	48 b8 61 62 6c 65 20 	movabs $0x206f7420656c6261,%rax
  402b12:	74 6f 20 
  402b15:	48 ba 72 65 61 64 20 	movabs $0x6174732064616572,%rdx
  402b1c:	73 74 61 
  402b1f:	48 89 45 10          	mov    %rax,0x10(%rbp)
  402b23:	48 89 55 18          	mov    %rdx,0x18(%rbp)
  402b27:	48 b8 74 75 73 20 6d 	movabs $0x7373656d20737574,%rax
  402b2e:	65 73 73 
  402b31:	48 ba 61 67 65 20 66 	movabs $0x6d6f726620656761,%rdx
  402b38:	72 6f 6d 
  402b3b:	48 89 45 20          	mov    %rax,0x20(%rbp)
  402b3f:	48 89 55 28          	mov    %rdx,0x28(%rbp)
  402b43:	48 b8 20 72 65 73 75 	movabs $0x20746c7573657220,%rax
  402b4a:	6c 74 20 
  402b4d:	48 89 45 30          	mov    %rax,0x30(%rbp)
  402b51:	c7 45 38 73 65 72 76 	movl   $0x76726573,0x38(%rbp)
  402b58:	66 c7 45 3c 65 72    	movw   $0x7265,0x3c(%rbp)
  402b5e:	c6 45 3e 00          	movb   $0x0,0x3e(%rbp)
  402b62:	89 df                	mov    %ebx,%edi
  402b64:	e8 b7 e1 ff ff       	callq  400d20 <close@plt>
  402b69:	b8 ff ff ff ff       	mov    $0xffffffff,%eax
  402b6e:	e9 a4 fb ff ff       	jmpq   402717 <submitr+0x2e7>
  402b73:	4c 8d 8c 24 50 80 00 	lea    0x8050(%rsp),%r9
  402b7a:	00 
  402b7b:	48 8d 0d 46 0a 00 00 	lea    0xa46(%rip),%rcx        # 4035c8 <trans_char+0x78>
  402b82:	48 c7 c2 ff ff ff ff 	mov    $0xffffffffffffffff,%rdx
  402b89:	be 01 00 00 00       	mov    $0x1,%esi
  402b8e:	48 89 ef             	mov    %rbp,%rdi
  402b91:	b8 00 00 00 00       	mov    $0x0,%eax
  402b96:	e8 c5 e2 ff ff       	callq  400e60 <__sprintf_chk@plt>
  402b9b:	89 df                	mov    %ebx,%edi
  402b9d:	e8 7e e1 ff ff       	callq  400d20 <close@plt>
  402ba2:	b8 ff ff ff ff       	mov    $0xffffffff,%eax
  402ba7:	e9 6b fb ff ff       	jmpq   402717 <submitr+0x2e7>
  402bac:	e8 2f e1 ff ff       	callq  400ce0 <__stack_chk_fail@plt>

0000000000402bb1 <init_timeout>:
  402bb1:	85 ff                	test   %edi,%edi
  402bb3:	74 28                	je     402bdd <init_timeout+0x2c>
  402bb5:	53                   	push   %rbx
  402bb6:	89 fb                	mov    %edi,%ebx
  402bb8:	85 ff                	test   %edi,%edi
  402bba:	78 1a                	js     402bd6 <init_timeout+0x25>
  402bbc:	48 8d 35 9d f5 ff ff 	lea    -0xa63(%rip),%rsi        # 402160 <sigalrm_handler>
  402bc3:	bf 0e 00 00 00       	mov    $0xe,%edi
  402bc8:	e8 73 e1 ff ff       	callq  400d40 <signal@plt>
  402bcd:	89 df                	mov    %ebx,%edi
  402bcf:	e8 3c e1 ff ff       	callq  400d10 <alarm@plt>
  402bd4:	5b                   	pop    %rbx
  402bd5:	c3                   	retq   
  402bd6:	bb 00 00 00 00       	mov    $0x0,%ebx
  402bdb:	eb df                	jmp    402bbc <init_timeout+0xb>
  402bdd:	f3 c3                	repz retq 

0000000000402bdf <init_driver>:
  402bdf:	41 54                	push   %r12
  402be1:	55                   	push   %rbp
  402be2:	53                   	push   %rbx
  402be3:	48 83 ec 20          	sub    $0x20,%rsp
  402be7:	49 89 fc             	mov    %rdi,%r12
  402bea:	64 48 8b 04 25 28 00 	mov    %fs:0x28,%rax
  402bf1:	00 00 
  402bf3:	48 89 44 24 18       	mov    %rax,0x18(%rsp)
  402bf8:	31 c0                	xor    %eax,%eax
  402bfa:	be 01 00 00 00       	mov    $0x1,%esi
  402bff:	bf 0d 00 00 00       	mov    $0xd,%edi
  402c04:	e8 37 e1 ff ff       	callq  400d40 <signal@plt>
  402c09:	be 01 00 00 00       	mov    $0x1,%esi
  402c0e:	bf 1d 00 00 00       	mov    $0x1d,%edi
  402c13:	e8 28 e1 ff ff       	callq  400d40 <signal@plt>
  402c18:	be 01 00 00 00       	mov    $0x1,%esi
  402c1d:	bf 1d 00 00 00       	mov    $0x1d,%edi
  402c22:	e8 19 e1 ff ff       	callq  400d40 <signal@plt>
  402c27:	ba 00 00 00 00       	mov    $0x0,%edx
  402c2c:	be 01 00 00 00       	mov    $0x1,%esi
  402c31:	bf 02 00 00 00       	mov    $0x2,%edi
  402c36:	e8 35 e2 ff ff       	callq  400e70 <socket@plt>
  402c3b:	85 c0                	test   %eax,%eax
  402c3d:	0f 88 a3 00 00 00    	js     402ce6 <init_driver+0x107>
  402c43:	89 c3                	mov    %eax,%ebx
  402c45:	48 8d 3d d0 09 00 00 	lea    0x9d0(%rip),%rdi        # 40361c <trans_char+0xcc>
  402c4c:	e8 ff e0 ff ff       	callq  400d50 <gethostbyname@plt>
  402c51:	48 85 c0             	test   %rax,%rax
  402c54:	0f 84 df 00 00 00    	je     402d39 <init_driver+0x15a>
  402c5a:	48 89 e5             	mov    %rsp,%rbp
  402c5d:	48 c7 44 24 02 00 00 	movq   $0x0,0x2(%rsp)
  402c64:	00 00 
  402c66:	c7 45 0a 00 00 00 00 	movl   $0x0,0xa(%rbp)
  402c6d:	66 c7 45 0e 00 00    	movw   $0x0,0xe(%rbp)
  402c73:	66 c7 04 24 02 00    	movw   $0x2,(%rsp)
  402c79:	48 63 50 14          	movslq 0x14(%rax),%rdx
  402c7d:	48 8b 40 18          	mov    0x18(%rax),%rax
  402c81:	48 8b 30             	mov    (%rax),%rsi
  402c84:	48 8d 7d 04          	lea    0x4(%rbp),%rdi
  402c88:	b9 0c 00 00 00       	mov    $0xc,%ecx
  402c8d:	e8 ce e0 ff ff       	callq  400d60 <__memmove_chk@plt>
  402c92:	66 c7 44 24 02 3c 9a 	movw   $0x9a3c,0x2(%rsp)
  402c99:	ba 10 00 00 00       	mov    $0x10,%edx
  402c9e:	48 89 ee             	mov    %rbp,%rsi
  402ca1:	89 df                	mov    %ebx,%edi
  402ca3:	e8 98 e1 ff ff       	callq  400e40 <connect@plt>
  402ca8:	85 c0                	test   %eax,%eax
  402caa:	0f 88 fb 00 00 00    	js     402dab <init_driver+0x1cc>
  402cb0:	89 df                	mov    %ebx,%edi
  402cb2:	e8 69 e0 ff ff       	callq  400d20 <close@plt>
  402cb7:	66 41 c7 04 24 4f 4b 	movw   $0x4b4f,(%r12)
  402cbe:	41 c6 44 24 02 00    	movb   $0x0,0x2(%r12)
  402cc4:	b8 00 00 00 00       	mov    $0x0,%eax
  402cc9:	48 8b 4c 24 18       	mov    0x18(%rsp),%rcx
  402cce:	64 48 33 0c 25 28 00 	xor    %fs:0x28,%rcx
  402cd5:	00 00 
  402cd7:	0f 85 28 01 00 00    	jne    402e05 <init_driver+0x226>
  402cdd:	48 83 c4 20          	add    $0x20,%rsp
  402ce1:	5b                   	pop    %rbx
  402ce2:	5d                   	pop    %rbp
  402ce3:	41 5c                	pop    %r12
  402ce5:	c3                   	retq   
  402ce6:	48 b8 45 72 72 6f 72 	movabs $0x43203a726f727245,%rax
  402ced:	3a 20 43 
  402cf0:	48 ba 6c 69 65 6e 74 	movabs $0x6e7520746e65696c,%rdx
  402cf7:	20 75 6e 
  402cfa:	49 89 04 24          	mov    %rax,(%r12)
  402cfe:	49 89 54 24 08       	mov    %rdx,0x8(%r12)
  402d03:	48 b8 61 62 6c 65 20 	movabs $0x206f7420656c6261,%rax
  402d0a:	74 6f 20 
  402d0d:	48 ba 63 72 65 61 74 	movabs $0x7320657461657263,%rdx
  402d14:	65 20 73 
  402d17:	49 89 44 24 10       	mov    %rax,0x10(%r12)
  402d1c:	49 89 54 24 18       	mov    %rdx,0x18(%r12)
  402d21:	41 c7 44 24 20 6f 63 	movl   $0x656b636f,0x20(%r12)
  402d28:	6b 65 
  402d2a:	66 41 c7 44 24 24 74 	movw   $0x74,0x24(%r12)
  402d31:	00 
  402d32:	b8 ff ff ff ff       	mov    $0xffffffff,%eax
  402d37:	eb 90                	jmp    402cc9 <init_driver+0xea>
  402d39:	48 b8 45 72 72 6f 72 	movabs $0x44203a726f727245,%rax
  402d40:	3a 20 44 
  402d43:	48 ba 4e 53 20 69 73 	movabs $0x6e7520736920534e,%rdx
  402d4a:	20 75 6e 
  402d4d:	49 89 04 24          	mov    %rax,(%r12)
  402d51:	49 89 54 24 08       	mov    %rdx,0x8(%r12)
  402d56:	48 b8 61 62 6c 65 20 	movabs $0x206f7420656c6261,%rax
  402d5d:	74 6f 20 
  402d60:	48 ba 72 65 73 6f 6c 	movabs $0x2065766c6f736572,%rdx
  402d67:	76 65 20 
  402d6a:	49 89 44 24 10       	mov    %rax,0x10(%r12)
  402d6f:	49 89 54 24 18       	mov    %rdx,0x18(%r12)
  402d74:	48 b8 73 65 72 76 65 	movabs $0x6120726576726573,%rax
  402d7b:	72 20 61 
  402d7e:	49 89 44 24 20       	mov    %rax,0x20(%r12)
  402d83:	41 c7 44 24 28 64 64 	movl   $0x65726464,0x28(%r12)
  402d8a:	72 65 
  402d8c:	66 41 c7 44 24 2c 73 	movw   $0x7373,0x2c(%r12)
  402d93:	73 
  402d94:	41 c6 44 24 2e 00    	movb   $0x0,0x2e(%r12)
  402d9a:	89 df                	mov    %ebx,%edi
  402d9c:	e8 7f df ff ff       	callq  400d20 <close@plt>
  402da1:	b8 ff ff ff ff       	mov    $0xffffffff,%eax
  402da6:	e9 1e ff ff ff       	jmpq   402cc9 <init_driver+0xea>
  402dab:	48 b8 45 72 72 6f 72 	movabs $0x55203a726f727245,%rax
  402db2:	3a 20 55 
  402db5:	48 ba 6e 61 62 6c 65 	movabs $0x6f7420656c62616e,%rdx
  402dbc:	20 74 6f 
  402dbf:	49 89 04 24          	mov    %rax,(%r12)
  402dc3:	49 89 54 24 08       	mov    %rdx,0x8(%r12)
  402dc8:	48 b8 20 63 6f 6e 6e 	movabs $0x7463656e6e6f6320,%rax
  402dcf:	65 63 74 
  402dd2:	48 ba 20 74 6f 20 73 	movabs $0x76726573206f7420,%rdx
  402dd9:	65 72 76 
  402ddc:	49 89 44 24 10       	mov    %rax,0x10(%r12)
  402de1:	49 89 54 24 18       	mov    %rdx,0x18(%r12)
  402de6:	66 41 c7 44 24 20 65 	movw   $0x7265,0x20(%r12)
  402ded:	72 
  402dee:	41 c6 44 24 22 00    	movb   $0x0,0x22(%r12)
  402df4:	89 df                	mov    %ebx,%edi
  402df6:	e8 25 df ff ff       	callq  400d20 <close@plt>
  402dfb:	b8 ff ff ff ff       	mov    $0xffffffff,%eax
  402e00:	e9 c4 fe ff ff       	jmpq   402cc9 <init_driver+0xea>
  402e05:	e8 d6 de ff ff       	callq  400ce0 <__stack_chk_fail@plt>

0000000000402e0a <driver_post>:
  402e0a:	53                   	push   %rbx
  402e0b:	4c 89 cb             	mov    %r9,%rbx
  402e0e:	45 85 c0             	test   %r8d,%r8d
  402e11:	75 18                	jne    402e2b <driver_post+0x21>
  402e13:	48 85 ff             	test   %rdi,%rdi
  402e16:	74 05                	je     402e1d <driver_post+0x13>
  402e18:	80 3f 00             	cmpb   $0x0,(%rdi)
  402e1b:	75 37                	jne    402e54 <driver_post+0x4a>
  402e1d:	66 c7 03 4f 4b       	movw   $0x4b4f,(%rbx)
  402e22:	c6 43 02 00          	movb   $0x0,0x2(%rbx)
  402e26:	44 89 c0             	mov    %r8d,%eax
  402e29:	5b                   	pop    %rbx
  402e2a:	c3                   	retq   
  402e2b:	48 89 ca             	mov    %rcx,%rdx
  402e2e:	48 8d 35 ff 07 00 00 	lea    0x7ff(%rip),%rsi        # 403634 <trans_char+0xe4>
  402e35:	bf 01 00 00 00       	mov    $0x1,%edi
  402e3a:	b8 00 00 00 00       	mov    $0x0,%eax
  402e3f:	e8 9c df ff ff       	callq  400de0 <__printf_chk@plt>
  402e44:	66 c7 03 4f 4b       	movw   $0x4b4f,(%rbx)
  402e49:	c6 43 02 00          	movb   $0x0,0x2(%rbx)
  402e4d:	b8 00 00 00 00       	mov    $0x0,%eax
  402e52:	eb d5                	jmp    402e29 <driver_post+0x1f>
  402e54:	48 83 ec 08          	sub    $0x8,%rsp
  402e58:	41 51                	push   %r9
  402e5a:	49 89 c9             	mov    %rcx,%r9
  402e5d:	49 89 d0             	mov    %rdx,%r8
  402e60:	48 89 f9             	mov    %rdi,%rcx
  402e63:	48 89 f2             	mov    %rsi,%rdx
  402e66:	be 9a 3c 00 00       	mov    $0x3c9a,%esi
  402e6b:	48 8d 3d aa 07 00 00 	lea    0x7aa(%rip),%rdi        # 40361c <trans_char+0xcc>
  402e72:	e8 b9 f5 ff ff       	callq  402430 <submitr>
  402e77:	48 83 c4 10          	add    $0x10,%rsp
  402e7b:	eb ac                	jmp    402e29 <driver_post+0x1f>

0000000000402e7d <check>:
  402e7d:	89 f8                	mov    %edi,%eax
  402e7f:	c1 e8 1c             	shr    $0x1c,%eax
  402e82:	85 c0                	test   %eax,%eax
  402e84:	74 1d                	je     402ea3 <check+0x26>
  402e86:	b9 00 00 00 00       	mov    $0x0,%ecx
  402e8b:	83 f9 1f             	cmp    $0x1f,%ecx
  402e8e:	7f 0d                	jg     402e9d <check+0x20>
  402e90:	89 f8                	mov    %edi,%eax
  402e92:	d3 e8                	shr    %cl,%eax
  402e94:	3c 0a                	cmp    $0xa,%al
  402e96:	74 11                	je     402ea9 <check+0x2c>
  402e98:	83 c1 08             	add    $0x8,%ecx
  402e9b:	eb ee                	jmp    402e8b <check+0xe>
  402e9d:	b8 01 00 00 00       	mov    $0x1,%eax
  402ea2:	c3                   	retq   
  402ea3:	b8 00 00 00 00       	mov    $0x0,%eax
  402ea8:	c3                   	retq   
  402ea9:	b8 00 00 00 00       	mov    $0x0,%eax
  402eae:	c3                   	retq   

0000000000402eaf <gencookie>:
  402eaf:	53                   	push   %rbx
  402eb0:	83 c7 01             	add    $0x1,%edi
  402eb3:	e8 d8 dd ff ff       	callq  400c90 <srandom@plt>
  402eb8:	e8 e3 de ff ff       	callq  400da0 <random@plt>
  402ebd:	89 c3                	mov    %eax,%ebx
  402ebf:	89 c7                	mov    %eax,%edi
  402ec1:	e8 b7 ff ff ff       	callq  402e7d <check>
  402ec6:	85 c0                	test   %eax,%eax
  402ec8:	74 ee                	je     402eb8 <gencookie+0x9>
  402eca:	89 d8                	mov    %ebx,%eax
  402ecc:	5b                   	pop    %rbx
  402ecd:	c3                   	retq   
  402ece:	66 90                	xchg   %ax,%ax

0000000000402ed0 <__libc_csu_init>:
  402ed0:	41 57                	push   %r15
  402ed2:	41 56                	push   %r14
  402ed4:	49 89 d7             	mov    %rdx,%r15
  402ed7:	41 55                	push   %r13
  402ed9:	41 54                	push   %r12
  402edb:	4c 8d 25 2e 1f 20 00 	lea    0x201f2e(%rip),%r12        # 604e10 <__frame_dummy_init_array_entry>
  402ee2:	55                   	push   %rbp
  402ee3:	48 8d 2d 2e 1f 20 00 	lea    0x201f2e(%rip),%rbp        # 604e18 <__init_array_end>
  402eea:	53                   	push   %rbx
  402eeb:	41 89 fd             	mov    %edi,%r13d
  402eee:	49 89 f6             	mov    %rsi,%r14
  402ef1:	4c 29 e5             	sub    %r12,%rbp
  402ef4:	48 83 ec 08          	sub    $0x8,%rsp
  402ef8:	48 c1 fd 03          	sar    $0x3,%rbp
  402efc:	e8 47 dd ff ff       	callq  400c48 <_init>
  402f01:	48 85 ed             	test   %rbp,%rbp
  402f04:	74 20                	je     402f26 <__libc_csu_init+0x56>
  402f06:	31 db                	xor    %ebx,%ebx
  402f08:	0f 1f 84 00 00 00 00 	nopl   0x0(%rax,%rax,1)
  402f0f:	00 
  402f10:	4c 89 fa             	mov    %r15,%rdx
  402f13:	4c 89 f6             	mov    %r14,%rsi
  402f16:	44 89 ef             	mov    %r13d,%edi
  402f19:	41 ff 14 dc          	callq  *(%r12,%rbx,8)
  402f1d:	48 83 c3 01          	add    $0x1,%rbx
  402f21:	48 39 dd             	cmp    %rbx,%rbp
  402f24:	75 ea                	jne    402f10 <__libc_csu_init+0x40>
  402f26:	48 83 c4 08          	add    $0x8,%rsp
  402f2a:	5b                   	pop    %rbx
  402f2b:	5d                   	pop    %rbp
  402f2c:	41 5c                	pop    %r12
  402f2e:	41 5d                	pop    %r13
  402f30:	41 5e                	pop    %r14
  402f32:	41 5f                	pop    %r15
  402f34:	c3                   	retq   
  402f35:	90                   	nop
  402f36:	66 2e 0f 1f 84 00 00 	nopw   %cs:0x0(%rax,%rax,1)
  402f3d:	00 00 00 

0000000000402f40 <__libc_csu_fini>:
  402f40:	f3 c3                	repz retq 

Disassembly of section .fini:

0000000000402f44 <_fini>:
  402f44:	48 83 ec 08          	sub    $0x8,%rsp
  402f48:	48 83 c4 08          	add    $0x8,%rsp
  402f4c:	c3                   	retq   
